

Microchip Technology PIC LITE Macro Assembler V2.00 build -1524193055 
                                                                                               Tue Dec 25 23:23:23 2018

Microchip Technology Omniscient Code Generator v2.00 (Free mode) build 20180527130849
     1  0000                     
      + 0000                     
     2                           ; Version 2.00
     3                           ; Generated 27/05/2018 GMT
     4                           
     5                           ; 
     6                           ; Copyright © 2018, Microchip Technology Inc. and its subsidiaries ("Microchip")
     7                           ; All rights reserved.
     8                           ; 
     9                           ; This software is developed by Microchip Technology Inc. and its subsidiaries ("Microch
                                 ip").
    10                           ; 
    11                           ; Redistribution and use in source and binary forms, with or without modification, are
    12                           ; permitted provided that the following conditions are met:
    13                           ; 
    14                           ;     1. Redistributions of source code must retain the above copyright notice, this lis
                                 t of
    15                           ;        conditions and the following disclaimer.
    16                           ; 
    17                           ;     2. Redistributions in binary form must reproduce the above copyright notice, this 
                                 list
    18                           ;        of conditions and the following disclaimer in the documentation and/or other
    19                           ;        materials provided with the distribution.
    20                           ; 
    21                           ;     3. Microchip's name may not be used to endorse or promote products derived from th
                                 is
    22                           ;        software without specific prior written permission.
    23                           ; 
    24                           ; THIS SOFTWARE IS PROVIDED BY MICROCHIP "AS IS" AND ANY EXPRESS OR IMPLIED WARRANTIES,

    25                           ; INCLUDING, BUT NOT LIMITED TO, THE IMPLIED WARRANTIES OF MERCHANTABILITY AND FITNESS F
                                 OR
    26                           ; PURPOSE ARE DISCLAIMED.  IN NO EVENT SHALL MICROCHIP BE LIABLE FOR ANY DIRECT, INDIREC
                                 T,
    27                           ; INCIDENTAL, SPECIAL, EXEMPLARY, OR CONSEQUENTIAL DAMAGES (INCLUDING BUT NOT LIMITED TO
                                 
    28                           ; PROCUREMENT OF SUBSTITUTE GOODS OR SERVICES; LOSS OF USE, DATA OR PROFITS; OR BUSINESS
                                 
    29                           ; INTERRUPTION) HOWSOEVER CAUSED AND ON ANY THEORY OF LIABILITY, WHETHER IN CONTRACT, ST
                                 RICT
    30                           ; LIABILITY, OR TORT (INCLUDING NEGLIGENCE OR OTHERWISE) ARISING IN ANY WAY OUT OF THE U
                                 SE OF
    31                           ; THIS SOFTWARE, EVEN IF ADVISED OF THE POSSIBILITY OF SUCH DAMAGE.
    32                           ; 
    33                           
    34                           
    35                           ; 
    36                           ; Code-generator required, PIC16F887 Definitions
    37                           ; 
    38  0004                     fsr0 equ 04h
    39  0004                     indf equ 00h
    40  0000                     indf0 equ 00h
    41  0000                     pc equ 02h
    42  0002                     pcl equ 02h
    43  0002                     pclath equ 0Ah
    44  000A                     status equ 03h
    45  0003                     
     2                           opt pagewidth 120
     3  0000                     byte0	macro	val
     4                           	(getbyte(val,0))
     5                           endm
     6  0000                     byte1	macro	val
     7                           	(getbyte(val,1))
     8                           endm
     9  0000                     byte2	macro	val
    10                           	(getbyte(val,2))
    11                           endm
    12  0000                     byte3	macro	val
    13                           	(getbyte(val,3))
    14                           endm
    15  0000                     byte4	macro	val
    16                           	(getbyte(val,4))
    17                           endm
    18  0000                     byte5	macro	val
    19                           	(getbyte(val,5))
    20                           endm
    21  0000                     byte6	macro	val
    22                           	(getbyte(val,6))
    23                           endm
    24  0000                     byte7	macro	val
    25                           	(getbyte(val,7))
    26                           endm
    27  0000                     getword	macro	val,pos
    28                           	(((val) >> (8 * pos)) and 0xffff)
    29                           endm
    30  0000                     word0	macro	val
    31                           	(getword(val,0))
    32                           endm
    33  0000                     word1	macro	val
    34                           	(getword(val,2))
    35                           endm
    36  0000                     word2	macro	val
    37                           	(getword(val,4))
    38                           endm
    39  0000                     word3	macro	val
    40                           	(getword(val,6))
    41                           endm
    42  0000                     gettword	macro	val,pos
    43                           	(((val) >> (8 * pos)) and 0xffffff)
    44                           endm
    45  0000                     tword0	macro	val
    46                           	(gettword(val,0))
    47                           endm
    48  0000                     tword1	macro	val
    49                           	(gettword(val,3))
    50                           endm
    51  0000                     tword2	macro	val
    52                           	(gettword(val,6))
    53                           endm
    54  0000                     getdword	macro	val,pos
    55                           	(((val) >> (8 * pos)) and 0xffffffff)
    56                           endm
    57  0000                     dword0	macro	val
    58                           	(getdword(val,0))
    59                           endm
    60  0000                     dword1	macro	val
    61                           	(getdword(val,4))
    62                           endm
    63  0000                     clrc	macro
    64                           	bcf	3,0
    65                           	endm
    66  0000                     clrz	macro
    67                           	bcf	3,2
    68                           	endm
    69  0000                     setc	macro
    70                           	bsf	3,0
    71                           	endm
    72  0000                     setz	macro
    73                           	bsf	3,2
    74                           	endm
    75  0000                     skipc	macro
    76                           	btfss	3,0
    77                           	endm
    78  0000                     skipz	macro
    79                           	btfss	3,2
    80                           	endm
    81  0000                     skipnc	macro
    82                           	btfsc	3,0
    83                           	endm
    84  0000                     skipnz	macro
    85                           	btfsc	3,2
    86                           	endm
    87  0000                     # 54 "C:\Program Files (x86)\Microchip\xc8\v2.00\pic\include\pic16f887.h"
    88                           INDF equ 00h ;# 
    89  0000                     # 61 "C:\Program Files (x86)\Microchip\xc8\v2.00\pic\include\pic16f887.h"
    90                           TMR0 equ 01h ;# 
    91  0001                     # 68 "C:\Program Files (x86)\Microchip\xc8\v2.00\pic\include\pic16f887.h"
    92                           PCL equ 02h ;# 
    93  0002                     # 75 "C:\Program Files (x86)\Microchip\xc8\v2.00\pic\include\pic16f887.h"
    94                           STATUS equ 03h ;# 
    95  0003                     # 161 "C:\Program Files (x86)\Microchip\xc8\v2.00\pic\include\pic16f887.h"
    96                           FSR equ 04h ;# 
    97  0004                     # 168 "C:\Program Files (x86)\Microchip\xc8\v2.00\pic\include\pic16f887.h"
    98                           PORTA equ 05h ;# 
    99  0005                     # 230 "C:\Program Files (x86)\Microchip\xc8\v2.00\pic\include\pic16f887.h"
   100                           PORTB equ 06h ;# 
   101  0006                     # 292 "C:\Program Files (x86)\Microchip\xc8\v2.00\pic\include\pic16f887.h"
   102                           PORTC equ 07h ;# 
   103  0007                     # 354 "C:\Program Files (x86)\Microchip\xc8\v2.00\pic\include\pic16f887.h"
   104                           PORTD equ 08h ;# 
   105  0008                     # 416 "C:\Program Files (x86)\Microchip\xc8\v2.00\pic\include\pic16f887.h"
   106                           PORTE equ 09h ;# 
   107  0009                     # 454 "C:\Program Files (x86)\Microchip\xc8\v2.00\pic\include\pic16f887.h"
   108                           PCLATH equ 0Ah ;# 
   109  000A                     # 461 "C:\Program Files (x86)\Microchip\xc8\v2.00\pic\include\pic16f887.h"
   110                           INTCON equ 0Bh ;# 
   111  000B                     # 539 "C:\Program Files (x86)\Microchip\xc8\v2.00\pic\include\pic16f887.h"
   112                           PIR1 equ 0Ch ;# 
   113  000C                     # 595 "C:\Program Files (x86)\Microchip\xc8\v2.00\pic\include\pic16f887.h"
   114                           PIR2 equ 0Dh ;# 
   115  000D                     # 652 "C:\Program Files (x86)\Microchip\xc8\v2.00\pic\include\pic16f887.h"
   116                           TMR1 equ 0Eh ;# 
   117  000E                     # 659 "C:\Program Files (x86)\Microchip\xc8\v2.00\pic\include\pic16f887.h"
   118                           TMR1L equ 0Eh ;# 
   119  000E                     # 666 "C:\Program Files (x86)\Microchip\xc8\v2.00\pic\include\pic16f887.h"
   120                           TMR1H equ 0Fh ;# 
   121  000F                     # 673 "C:\Program Files (x86)\Microchip\xc8\v2.00\pic\include\pic16f887.h"
   122                           T1CON equ 010h ;# 
   123  0010                     # 767 "C:\Program Files (x86)\Microchip\xc8\v2.00\pic\include\pic16f887.h"
   124                           TMR2 equ 011h ;# 
   125  0011                     # 774 "C:\Program Files (x86)\Microchip\xc8\v2.00\pic\include\pic16f887.h"
   126                           T2CON equ 012h ;# 
   127  0012                     # 845 "C:\Program Files (x86)\Microchip\xc8\v2.00\pic\include\pic16f887.h"
   128                           SSPBUF equ 013h ;# 
   129  0013                     # 852 "C:\Program Files (x86)\Microchip\xc8\v2.00\pic\include\pic16f887.h"
   130                           SSPCON equ 014h ;# 
   131  0014                     # 922 "C:\Program Files (x86)\Microchip\xc8\v2.00\pic\include\pic16f887.h"
   132                           CCPR1 equ 015h ;# 
   133  0015                     # 929 "C:\Program Files (x86)\Microchip\xc8\v2.00\pic\include\pic16f887.h"
   134                           CCPR1L equ 015h ;# 
   135  0015                     # 936 "C:\Program Files (x86)\Microchip\xc8\v2.00\pic\include\pic16f887.h"
   136                           CCPR1H equ 016h ;# 
   137  0016                     # 943 "C:\Program Files (x86)\Microchip\xc8\v2.00\pic\include\pic16f887.h"
   138                           CCP1CON equ 017h ;# 
   139  0017                     # 1040 "C:\Program Files (x86)\Microchip\xc8\v2.00\pic\include\pic16f887.h"
   140                           RCSTA equ 018h ;# 
   141  0018                     # 1135 "C:\Program Files (x86)\Microchip\xc8\v2.00\pic\include\pic16f887.h"
   142                           TXREG equ 019h ;# 
   143  0019                     # 1142 "C:\Program Files (x86)\Microchip\xc8\v2.00\pic\include\pic16f887.h"
   144                           RCREG equ 01Ah ;# 
   145  001A                     # 1149 "C:\Program Files (x86)\Microchip\xc8\v2.00\pic\include\pic16f887.h"
   146                           CCPR2 equ 01Bh ;# 
   147  001B                     # 1156 "C:\Program Files (x86)\Microchip\xc8\v2.00\pic\include\pic16f887.h"
   148                           CCPR2L equ 01Bh ;# 
   149  001B                     # 1163 "C:\Program Files (x86)\Microchip\xc8\v2.00\pic\include\pic16f887.h"
   150                           CCPR2H equ 01Ch ;# 
   151  001C                     # 1170 "C:\Program Files (x86)\Microchip\xc8\v2.00\pic\include\pic16f887.h"
   152                           CCP2CON equ 01Dh ;# 
   153  001D                     # 1240 "C:\Program Files (x86)\Microchip\xc8\v2.00\pic\include\pic16f887.h"
   154                           ADRESH equ 01Eh ;# 
   155  001E                     # 1247 "C:\Program Files (x86)\Microchip\xc8\v2.00\pic\include\pic16f887.h"
   156                           ADCON0 equ 01Fh ;# 
   157  001F                     # 1348 "C:\Program Files (x86)\Microchip\xc8\v2.00\pic\include\pic16f887.h"
   158                           OPTION_REG equ 081h ;# 
   159  0081                     # 1418 "C:\Program Files (x86)\Microchip\xc8\v2.00\pic\include\pic16f887.h"
   160                           TRISA equ 085h ;# 
   161  0085                     # 1480 "C:\Program Files (x86)\Microchip\xc8\v2.00\pic\include\pic16f887.h"
   162                           TRISB equ 086h ;# 
   163  0086                     # 1542 "C:\Program Files (x86)\Microchip\xc8\v2.00\pic\include\pic16f887.h"
   164                           TRISC equ 087h ;# 
   165  0087                     # 1604 "C:\Program Files (x86)\Microchip\xc8\v2.00\pic\include\pic16f887.h"
   166                           TRISD equ 088h ;# 
   167  0088                     # 1666 "C:\Program Files (x86)\Microchip\xc8\v2.00\pic\include\pic16f887.h"
   168                           TRISE equ 089h ;# 
   169  0089                     # 1704 "C:\Program Files (x86)\Microchip\xc8\v2.00\pic\include\pic16f887.h"
   170                           PIE1 equ 08Ch ;# 
   171  008C                     # 1760 "C:\Program Files (x86)\Microchip\xc8\v2.00\pic\include\pic16f887.h"
   172                           PIE2 equ 08Dh ;# 
   173  008D                     # 1817 "C:\Program Files (x86)\Microchip\xc8\v2.00\pic\include\pic16f887.h"
   174                           PCON equ 08Eh ;# 
   175  008E                     # 1864 "C:\Program Files (x86)\Microchip\xc8\v2.00\pic\include\pic16f887.h"
   176                           OSCCON equ 08Fh ;# 
   177  008F                     # 1929 "C:\Program Files (x86)\Microchip\xc8\v2.00\pic\include\pic16f887.h"
   178                           OSCTUNE equ 090h ;# 
   179  0090                     # 1981 "C:\Program Files (x86)\Microchip\xc8\v2.00\pic\include\pic16f887.h"
   180                           SSPCON2 equ 091h ;# 
   181  0091                     # 2043 "C:\Program Files (x86)\Microchip\xc8\v2.00\pic\include\pic16f887.h"
   182                           PR2 equ 092h ;# 
   183  0092                     # 2050 "C:\Program Files (x86)\Microchip\xc8\v2.00\pic\include\pic16f887.h"
   184                           SSPADD equ 093h ;# 
   185  0093                     # 2057 "C:\Program Files (x86)\Microchip\xc8\v2.00\pic\include\pic16f887.h"
   186                           SSPMSK equ 093h ;# 
   187  0093                     # 2062 "C:\Program Files (x86)\Microchip\xc8\v2.00\pic\include\pic16f887.h"
   188                           MSK equ 093h ;# 
   189  0093                     # 2179 "C:\Program Files (x86)\Microchip\xc8\v2.00\pic\include\pic16f887.h"
   190                           SSPSTAT equ 094h ;# 
   191  0094                     # 2348 "C:\Program Files (x86)\Microchip\xc8\v2.00\pic\include\pic16f887.h"
   192                           WPUB equ 095h ;# 
   193  0095                     # 2418 "C:\Program Files (x86)\Microchip\xc8\v2.00\pic\include\pic16f887.h"
   194                           IOCB equ 096h ;# 
   195  0096                     # 2488 "C:\Program Files (x86)\Microchip\xc8\v2.00\pic\include\pic16f887.h"
   196                           VRCON equ 097h ;# 
   197  0097                     # 2558 "C:\Program Files (x86)\Microchip\xc8\v2.00\pic\include\pic16f887.h"
   198                           TXSTA equ 098h ;# 
   199  0098                     # 2644 "C:\Program Files (x86)\Microchip\xc8\v2.00\pic\include\pic16f887.h"
   200                           SPBRG equ 099h ;# 
   201  0099                     # 2706 "C:\Program Files (x86)\Microchip\xc8\v2.00\pic\include\pic16f887.h"
   202                           SPBRGH equ 09Ah ;# 
   203  009A                     # 2776 "C:\Program Files (x86)\Microchip\xc8\v2.00\pic\include\pic16f887.h"
   204                           PWM1CON equ 09Bh ;# 
   205  009B                     # 2846 "C:\Program Files (x86)\Microchip\xc8\v2.00\pic\include\pic16f887.h"
   206                           ECCPAS equ 09Ch ;# 
   207  009C                     # 2928 "C:\Program Files (x86)\Microchip\xc8\v2.00\pic\include\pic16f887.h"
   208                           PSTRCON equ 09Dh ;# 
   209  009D                     # 2972 "C:\Program Files (x86)\Microchip\xc8\v2.00\pic\include\pic16f887.h"
   210                           ADRESL equ 09Eh ;# 
   211  009E                     # 2979 "C:\Program Files (x86)\Microchip\xc8\v2.00\pic\include\pic16f887.h"
   212                           ADCON1 equ 09Fh ;# 
   213  009F                     # 3013 "C:\Program Files (x86)\Microchip\xc8\v2.00\pic\include\pic16f887.h"
   214                           WDTCON equ 0105h ;# 
   215  0105                     # 3066 "C:\Program Files (x86)\Microchip\xc8\v2.00\pic\include\pic16f887.h"
   216                           CM1CON0 equ 0107h ;# 
   217  0107                     # 3131 "C:\Program Files (x86)\Microchip\xc8\v2.00\pic\include\pic16f887.h"
   218                           CM2CON0 equ 0108h ;# 
   219  0108                     # 3196 "C:\Program Files (x86)\Microchip\xc8\v2.00\pic\include\pic16f887.h"
   220                           CM2CON1 equ 0109h ;# 
   221  0109                     # 3247 "C:\Program Files (x86)\Microchip\xc8\v2.00\pic\include\pic16f887.h"
   222                           EEDATA equ 010Ch ;# 
   223  010C                     # 3252 "C:\Program Files (x86)\Microchip\xc8\v2.00\pic\include\pic16f887.h"
   224                           EEDAT equ 010Ch ;# 
   225  010C                     # 3259 "C:\Program Files (x86)\Microchip\xc8\v2.00\pic\include\pic16f887.h"
   226                           EEADR equ 010Dh ;# 
   227  010D                     # 3266 "C:\Program Files (x86)\Microchip\xc8\v2.00\pic\include\pic16f887.h"
   228                           EEDATH equ 010Eh ;# 
   229  010E                     # 3273 "C:\Program Files (x86)\Microchip\xc8\v2.00\pic\include\pic16f887.h"
   230                           EEADRH equ 010Fh ;# 
   231  010F                     # 3280 "C:\Program Files (x86)\Microchip\xc8\v2.00\pic\include\pic16f887.h"
   232                           SRCON equ 0185h ;# 
   233  0185                     # 3337 "C:\Program Files (x86)\Microchip\xc8\v2.00\pic\include\pic16f887.h"
   234                           BAUDCTL equ 0187h ;# 
   235  0187                     # 3389 "C:\Program Files (x86)\Microchip\xc8\v2.00\pic\include\pic16f887.h"
   236                           ANSEL equ 0188h ;# 
   237  0188                     # 3451 "C:\Program Files (x86)\Microchip\xc8\v2.00\pic\include\pic16f887.h"
   238                           ANSELH equ 0189h ;# 
   239  0189                     # 3501 "C:\Program Files (x86)\Microchip\xc8\v2.00\pic\include\pic16f887.h"
   240                           EECON1 equ 018Ch ;# 
   241  018C                     # 3546 "C:\Program Files (x86)\Microchip\xc8\v2.00\pic\include\pic16f887.h"
   242                           EECON2 equ 018Dh ;# 
   243  018D                     # 54 "C:\Program Files (x86)\Microchip\xc8\v2.00\pic\include\pic16f887.h"
   244                           INDF equ 00h ;# 
   245  0000                     # 61 "C:\Program Files (x86)\Microchip\xc8\v2.00\pic\include\pic16f887.h"
   246                           TMR0 equ 01h ;# 
   247  0001                     # 68 "C:\Program Files (x86)\Microchip\xc8\v2.00\pic\include\pic16f887.h"
   248                           PCL equ 02h ;# 
   249  0002                     # 75 "C:\Program Files (x86)\Microchip\xc8\v2.00\pic\include\pic16f887.h"
   250                           STATUS equ 03h ;# 
   251  0003                     # 161 "C:\Program Files (x86)\Microchip\xc8\v2.00\pic\include\pic16f887.h"
   252                           FSR equ 04h ;# 
   253  0004                     # 168 "C:\Program Files (x86)\Microchip\xc8\v2.00\pic\include\pic16f887.h"
   254                           PORTA equ 05h ;# 
   255  0005                     # 230 "C:\Program Files (x86)\Microchip\xc8\v2.00\pic\include\pic16f887.h"
   256                           PORTB equ 06h ;# 
   257  0006                     # 292 "C:\Program Files (x86)\Microchip\xc8\v2.00\pic\include\pic16f887.h"
   258                           PORTC equ 07h ;# 
   259  0007                     # 354 "C:\Program Files (x86)\Microchip\xc8\v2.00\pic\include\pic16f887.h"
   260                           PORTD equ 08h ;# 
   261  0008                     # 416 "C:\Program Files (x86)\Microchip\xc8\v2.00\pic\include\pic16f887.h"
   262                           PORTE equ 09h ;# 
   263  0009                     # 454 "C:\Program Files (x86)\Microchip\xc8\v2.00\pic\include\pic16f887.h"
   264                           PCLATH equ 0Ah ;# 
   265  000A                     # 461 "C:\Program Files (x86)\Microchip\xc8\v2.00\pic\include\pic16f887.h"
   266                           INTCON equ 0Bh ;# 
   267  000B                     # 539 "C:\Program Files (x86)\Microchip\xc8\v2.00\pic\include\pic16f887.h"
   268                           PIR1 equ 0Ch ;# 
   269  000C                     # 595 "C:\Program Files (x86)\Microchip\xc8\v2.00\pic\include\pic16f887.h"
   270                           PIR2 equ 0Dh ;# 
   271  000D                     # 652 "C:\Program Files (x86)\Microchip\xc8\v2.00\pic\include\pic16f887.h"
   272                           TMR1 equ 0Eh ;# 
   273  000E                     # 659 "C:\Program Files (x86)\Microchip\xc8\v2.00\pic\include\pic16f887.h"
   274                           TMR1L equ 0Eh ;# 
   275  000E                     # 666 "C:\Program Files (x86)\Microchip\xc8\v2.00\pic\include\pic16f887.h"
   276                           TMR1H equ 0Fh ;# 
   277  000F                     # 673 "C:\Program Files (x86)\Microchip\xc8\v2.00\pic\include\pic16f887.h"
   278                           T1CON equ 010h ;# 
   279  0010                     # 767 "C:\Program Files (x86)\Microchip\xc8\v2.00\pic\include\pic16f887.h"
   280                           TMR2 equ 011h ;# 
   281  0011                     # 774 "C:\Program Files (x86)\Microchip\xc8\v2.00\pic\include\pic16f887.h"
   282                           T2CON equ 012h ;# 
   283  0012                     # 845 "C:\Program Files (x86)\Microchip\xc8\v2.00\pic\include\pic16f887.h"
   284                           SSPBUF equ 013h ;# 
   285  0013                     # 852 "C:\Program Files (x86)\Microchip\xc8\v2.00\pic\include\pic16f887.h"
   286                           SSPCON equ 014h ;# 
   287  0014                     # 922 "C:\Program Files (x86)\Microchip\xc8\v2.00\pic\include\pic16f887.h"
   288                           CCPR1 equ 015h ;# 
   289  0015                     # 929 "C:\Program Files (x86)\Microchip\xc8\v2.00\pic\include\pic16f887.h"
   290                           CCPR1L equ 015h ;# 
   291  0015                     # 936 "C:\Program Files (x86)\Microchip\xc8\v2.00\pic\include\pic16f887.h"
   292                           CCPR1H equ 016h ;# 
   293  0016                     # 943 "C:\Program Files (x86)\Microchip\xc8\v2.00\pic\include\pic16f887.h"
   294                           CCP1CON equ 017h ;# 
   295  0017                     # 1040 "C:\Program Files (x86)\Microchip\xc8\v2.00\pic\include\pic16f887.h"
   296                           RCSTA equ 018h ;# 
   297  0018                     # 1135 "C:\Program Files (x86)\Microchip\xc8\v2.00\pic\include\pic16f887.h"
   298                           TXREG equ 019h ;# 
   299  0019                     # 1142 "C:\Program Files (x86)\Microchip\xc8\v2.00\pic\include\pic16f887.h"
   300                           RCREG equ 01Ah ;# 
   301  001A                     # 1149 "C:\Program Files (x86)\Microchip\xc8\v2.00\pic\include\pic16f887.h"
   302                           CCPR2 equ 01Bh ;# 
   303  001B                     # 1156 "C:\Program Files (x86)\Microchip\xc8\v2.00\pic\include\pic16f887.h"
   304                           CCPR2L equ 01Bh ;# 
   305  001B                     # 1163 "C:\Program Files (x86)\Microchip\xc8\v2.00\pic\include\pic16f887.h"
   306                           CCPR2H equ 01Ch ;# 
   307  001C                     # 1170 "C:\Program Files (x86)\Microchip\xc8\v2.00\pic\include\pic16f887.h"
   308                           CCP2CON equ 01Dh ;# 
   309  001D                     # 1240 "C:\Program Files (x86)\Microchip\xc8\v2.00\pic\include\pic16f887.h"
   310                           ADRESH equ 01Eh ;# 
   311  001E                     # 1247 "C:\Program Files (x86)\Microchip\xc8\v2.00\pic\include\pic16f887.h"
   312                           ADCON0 equ 01Fh ;# 
   313  001F                     # 1348 "C:\Program Files (x86)\Microchip\xc8\v2.00\pic\include\pic16f887.h"
   314                           OPTION_REG equ 081h ;# 
   315  0081                     # 1418 "C:\Program Files (x86)\Microchip\xc8\v2.00\pic\include\pic16f887.h"
   316                           TRISA equ 085h ;# 
   317  0085                     # 1480 "C:\Program Files (x86)\Microchip\xc8\v2.00\pic\include\pic16f887.h"
   318                           TRISB equ 086h ;# 
   319  0086                     # 1542 "C:\Program Files (x86)\Microchip\xc8\v2.00\pic\include\pic16f887.h"
   320                           TRISC equ 087h ;# 
   321  0087                     # 1604 "C:\Program Files (x86)\Microchip\xc8\v2.00\pic\include\pic16f887.h"
   322                           TRISD equ 088h ;# 
   323  0088                     # 1666 "C:\Program Files (x86)\Microchip\xc8\v2.00\pic\include\pic16f887.h"
   324                           TRISE equ 089h ;# 
   325  0089                     # 1704 "C:\Program Files (x86)\Microchip\xc8\v2.00\pic\include\pic16f887.h"
   326                           PIE1 equ 08Ch ;# 
   327  008C                     # 1760 "C:\Program Files (x86)\Microchip\xc8\v2.00\pic\include\pic16f887.h"
   328                           PIE2 equ 08Dh ;# 
   329  008D                     # 1817 "C:\Program Files (x86)\Microchip\xc8\v2.00\pic\include\pic16f887.h"
   330                           PCON equ 08Eh ;# 
   331  008E                     # 1864 "C:\Program Files (x86)\Microchip\xc8\v2.00\pic\include\pic16f887.h"
   332                           OSCCON equ 08Fh ;# 
   333  008F                     # 1929 "C:\Program Files (x86)\Microchip\xc8\v2.00\pic\include\pic16f887.h"
   334                           OSCTUNE equ 090h ;# 
   335  0090                     # 1981 "C:\Program Files (x86)\Microchip\xc8\v2.00\pic\include\pic16f887.h"
   336                           SSPCON2 equ 091h ;# 
   337  0091                     # 2043 "C:\Program Files (x86)\Microchip\xc8\v2.00\pic\include\pic16f887.h"
   338                           PR2 equ 092h ;# 
   339  0092                     # 2050 "C:\Program Files (x86)\Microchip\xc8\v2.00\pic\include\pic16f887.h"
   340                           SSPADD equ 093h ;# 
   341  0093                     # 2057 "C:\Program Files (x86)\Microchip\xc8\v2.00\pic\include\pic16f887.h"
   342                           SSPMSK equ 093h ;# 
   343  0093                     # 2062 "C:\Program Files (x86)\Microchip\xc8\v2.00\pic\include\pic16f887.h"
   344                           MSK equ 093h ;# 
   345  0093                     # 2179 "C:\Program Files (x86)\Microchip\xc8\v2.00\pic\include\pic16f887.h"
   346                           SSPSTAT equ 094h ;# 
   347  0094                     # 2348 "C:\Program Files (x86)\Microchip\xc8\v2.00\pic\include\pic16f887.h"
   348                           WPUB equ 095h ;# 
   349  0095                     # 2418 "C:\Program Files (x86)\Microchip\xc8\v2.00\pic\include\pic16f887.h"
   350                           IOCB equ 096h ;# 
   351  0096                     # 2488 "C:\Program Files (x86)\Microchip\xc8\v2.00\pic\include\pic16f887.h"
   352                           VRCON equ 097h ;# 
   353  0097                     # 2558 "C:\Program Files (x86)\Microchip\xc8\v2.00\pic\include\pic16f887.h"
   354                           TXSTA equ 098h ;# 
   355  0098                     # 2644 "C:\Program Files (x86)\Microchip\xc8\v2.00\pic\include\pic16f887.h"
   356                           SPBRG equ 099h ;# 
   357  0099                     # 2706 "C:\Program Files (x86)\Microchip\xc8\v2.00\pic\include\pic16f887.h"
   358                           SPBRGH equ 09Ah ;# 
   359  009A                     # 2776 "C:\Program Files (x86)\Microchip\xc8\v2.00\pic\include\pic16f887.h"
   360                           PWM1CON equ 09Bh ;# 
   361  009B                     # 2846 "C:\Program Files (x86)\Microchip\xc8\v2.00\pic\include\pic16f887.h"
   362                           ECCPAS equ 09Ch ;# 
   363  009C                     # 2928 "C:\Program Files (x86)\Microchip\xc8\v2.00\pic\include\pic16f887.h"
   364                           PSTRCON equ 09Dh ;# 
   365  009D                     # 2972 "C:\Program Files (x86)\Microchip\xc8\v2.00\pic\include\pic16f887.h"
   366                           ADRESL equ 09Eh ;# 
   367  009E                     # 2979 "C:\Program Files (x86)\Microchip\xc8\v2.00\pic\include\pic16f887.h"
   368                           ADCON1 equ 09Fh ;# 
   369  009F                     # 3013 "C:\Program Files (x86)\Microchip\xc8\v2.00\pic\include\pic16f887.h"
   370                           WDTCON equ 0105h ;# 
   371  0105                     # 3066 "C:\Program Files (x86)\Microchip\xc8\v2.00\pic\include\pic16f887.h"
   372                           CM1CON0 equ 0107h ;# 
   373  0107                     # 3131 "C:\Program Files (x86)\Microchip\xc8\v2.00\pic\include\pic16f887.h"
   374                           CM2CON0 equ 0108h ;# 
   375  0108                     # 3196 "C:\Program Files (x86)\Microchip\xc8\v2.00\pic\include\pic16f887.h"
   376                           CM2CON1 equ 0109h ;# 
   377  0109                     # 3247 "C:\Program Files (x86)\Microchip\xc8\v2.00\pic\include\pic16f887.h"
   378                           EEDATA equ 010Ch ;# 
   379  010C                     # 3252 "C:\Program Files (x86)\Microchip\xc8\v2.00\pic\include\pic16f887.h"
   380                           EEDAT equ 010Ch ;# 
   381  010C                     # 3259 "C:\Program Files (x86)\Microchip\xc8\v2.00\pic\include\pic16f887.h"
   382                           EEADR equ 010Dh ;# 
   383  010D                     # 3266 "C:\Program Files (x86)\Microchip\xc8\v2.00\pic\include\pic16f887.h"
   384                           EEDATH equ 010Eh ;# 
   385  010E                     # 3273 "C:\Program Files (x86)\Microchip\xc8\v2.00\pic\include\pic16f887.h"
   386                           EEADRH equ 010Fh ;# 
   387  010F                     # 3280 "C:\Program Files (x86)\Microchip\xc8\v2.00\pic\include\pic16f887.h"
   388                           SRCON equ 0185h ;# 
   389  0185                     # 3337 "C:\Program Files (x86)\Microchip\xc8\v2.00\pic\include\pic16f887.h"
   390                           BAUDCTL equ 0187h ;# 
   391  0187                     # 3389 "C:\Program Files (x86)\Microchip\xc8\v2.00\pic\include\pic16f887.h"
   392                           ANSEL equ 0188h ;# 
   393  0188                     # 3451 "C:\Program Files (x86)\Microchip\xc8\v2.00\pic\include\pic16f887.h"
   394                           ANSELH equ 0189h ;# 
   395  0189                     # 3501 "C:\Program Files (x86)\Microchip\xc8\v2.00\pic\include\pic16f887.h"
   396                           EECON1 equ 018Ch ;# 
   397  018C                     # 3546 "C:\Program Files (x86)\Microchip\xc8\v2.00\pic\include\pic16f887.h"
   398                           EECON2 equ 018Dh ;# 
   399  018D                     # 54 "C:\Program Files (x86)\Microchip\xc8\v2.00\pic\include\pic16f887.h"
   400                           INDF equ 00h ;# 
   401  0000                     # 61 "C:\Program Files (x86)\Microchip\xc8\v2.00\pic\include\pic16f887.h"
   402                           TMR0 equ 01h ;# 
   403  0001                     # 68 "C:\Program Files (x86)\Microchip\xc8\v2.00\pic\include\pic16f887.h"
   404                           PCL equ 02h ;# 
   405  0002                     # 75 "C:\Program Files (x86)\Microchip\xc8\v2.00\pic\include\pic16f887.h"
   406                           STATUS equ 03h ;# 
   407  0003                     # 161 "C:\Program Files (x86)\Microchip\xc8\v2.00\pic\include\pic16f887.h"
   408                           FSR equ 04h ;# 
   409  0004                     # 168 "C:\Program Files (x86)\Microchip\xc8\v2.00\pic\include\pic16f887.h"
   410                           PORTA equ 05h ;# 
   411  0005                     # 230 "C:\Program Files (x86)\Microchip\xc8\v2.00\pic\include\pic16f887.h"
   412                           PORTB equ 06h ;# 
   413  0006                     # 292 "C:\Program Files (x86)\Microchip\xc8\v2.00\pic\include\pic16f887.h"
   414                           PORTC equ 07h ;# 
   415  0007                     # 354 "C:\Program Files (x86)\Microchip\xc8\v2.00\pic\include\pic16f887.h"
   416                           PORTD equ 08h ;# 
   417  0008                     # 416 "C:\Program Files (x86)\Microchip\xc8\v2.00\pic\include\pic16f887.h"
   418                           PORTE equ 09h ;# 
   419  0009                     # 454 "C:\Program Files (x86)\Microchip\xc8\v2.00\pic\include\pic16f887.h"
   420                           PCLATH equ 0Ah ;# 
   421  000A                     # 461 "C:\Program Files (x86)\Microchip\xc8\v2.00\pic\include\pic16f887.h"
   422                           INTCON equ 0Bh ;# 
   423  000B                     # 539 "C:\Program Files (x86)\Microchip\xc8\v2.00\pic\include\pic16f887.h"
   424                           PIR1 equ 0Ch ;# 
   425  000C                     # 595 "C:\Program Files (x86)\Microchip\xc8\v2.00\pic\include\pic16f887.h"
   426                           PIR2 equ 0Dh ;# 
   427  000D                     # 652 "C:\Program Files (x86)\Microchip\xc8\v2.00\pic\include\pic16f887.h"
   428                           TMR1 equ 0Eh ;# 
   429  000E                     # 659 "C:\Program Files (x86)\Microchip\xc8\v2.00\pic\include\pic16f887.h"
   430                           TMR1L equ 0Eh ;# 
   431  000E                     # 666 "C:\Program Files (x86)\Microchip\xc8\v2.00\pic\include\pic16f887.h"
   432                           TMR1H equ 0Fh ;# 
   433  000F                     # 673 "C:\Program Files (x86)\Microchip\xc8\v2.00\pic\include\pic16f887.h"
   434                           T1CON equ 010h ;# 
   435  0010                     # 767 "C:\Program Files (x86)\Microchip\xc8\v2.00\pic\include\pic16f887.h"
   436                           TMR2 equ 011h ;# 
   437  0011                     # 774 "C:\Program Files (x86)\Microchip\xc8\v2.00\pic\include\pic16f887.h"
   438                           T2CON equ 012h ;# 
   439  0012                     # 845 "C:\Program Files (x86)\Microchip\xc8\v2.00\pic\include\pic16f887.h"
   440                           SSPBUF equ 013h ;# 
   441  0013                     # 852 "C:\Program Files (x86)\Microchip\xc8\v2.00\pic\include\pic16f887.h"
   442                           SSPCON equ 014h ;# 
   443  0014                     # 922 "C:\Program Files (x86)\Microchip\xc8\v2.00\pic\include\pic16f887.h"
   444                           CCPR1 equ 015h ;# 
   445  0015                     # 929 "C:\Program Files (x86)\Microchip\xc8\v2.00\pic\include\pic16f887.h"
   446                           CCPR1L equ 015h ;# 
   447  0015                     # 936 "C:\Program Files (x86)\Microchip\xc8\v2.00\pic\include\pic16f887.h"
   448                           CCPR1H equ 016h ;# 
   449  0016                     # 943 "C:\Program Files (x86)\Microchip\xc8\v2.00\pic\include\pic16f887.h"
   450                           CCP1CON equ 017h ;# 
   451  0017                     # 1040 "C:\Program Files (x86)\Microchip\xc8\v2.00\pic\include\pic16f887.h"
   452                           RCSTA equ 018h ;# 
   453  0018                     # 1135 "C:\Program Files (x86)\Microchip\xc8\v2.00\pic\include\pic16f887.h"
   454                           TXREG equ 019h ;# 
   455  0019                     # 1142 "C:\Program Files (x86)\Microchip\xc8\v2.00\pic\include\pic16f887.h"
   456                           RCREG equ 01Ah ;# 
   457  001A                     # 1149 "C:\Program Files (x86)\Microchip\xc8\v2.00\pic\include\pic16f887.h"
   458                           CCPR2 equ 01Bh ;# 
   459  001B                     # 1156 "C:\Program Files (x86)\Microchip\xc8\v2.00\pic\include\pic16f887.h"
   460                           CCPR2L equ 01Bh ;# 
   461  001B                     # 1163 "C:\Program Files (x86)\Microchip\xc8\v2.00\pic\include\pic16f887.h"
   462                           CCPR2H equ 01Ch ;# 
   463  001C                     # 1170 "C:\Program Files (x86)\Microchip\xc8\v2.00\pic\include\pic16f887.h"
   464                           CCP2CON equ 01Dh ;# 
   465  001D                     # 1240 "C:\Program Files (x86)\Microchip\xc8\v2.00\pic\include\pic16f887.h"
   466                           ADRESH equ 01Eh ;# 
   467  001E                     # 1247 "C:\Program Files (x86)\Microchip\xc8\v2.00\pic\include\pic16f887.h"
   468                           ADCON0 equ 01Fh ;# 
   469  001F                     # 1348 "C:\Program Files (x86)\Microchip\xc8\v2.00\pic\include\pic16f887.h"
   470                           OPTION_REG equ 081h ;# 
   471  0081                     # 1418 "C:\Program Files (x86)\Microchip\xc8\v2.00\pic\include\pic16f887.h"
   472                           TRISA equ 085h ;# 
   473  0085                     # 1480 "C:\Program Files (x86)\Microchip\xc8\v2.00\pic\include\pic16f887.h"
   474                           TRISB equ 086h ;# 
   475  0086                     # 1542 "C:\Program Files (x86)\Microchip\xc8\v2.00\pic\include\pic16f887.h"
   476                           TRISC equ 087h ;# 
   477  0087                     # 1604 "C:\Program Files (x86)\Microchip\xc8\v2.00\pic\include\pic16f887.h"
   478                           TRISD equ 088h ;# 
   479  0088                     # 1666 "C:\Program Files (x86)\Microchip\xc8\v2.00\pic\include\pic16f887.h"
   480                           TRISE equ 089h ;# 
   481  0089                     # 1704 "C:\Program Files (x86)\Microchip\xc8\v2.00\pic\include\pic16f887.h"
   482                           PIE1 equ 08Ch ;# 
   483  008C                     # 1760 "C:\Program Files (x86)\Microchip\xc8\v2.00\pic\include\pic16f887.h"
   484                           PIE2 equ 08Dh ;# 
   485  008D                     # 1817 "C:\Program Files (x86)\Microchip\xc8\v2.00\pic\include\pic16f887.h"
   486                           PCON equ 08Eh ;# 
   487  008E                     # 1864 "C:\Program Files (x86)\Microchip\xc8\v2.00\pic\include\pic16f887.h"
   488                           OSCCON equ 08Fh ;# 
   489  008F                     # 1929 "C:\Program Files (x86)\Microchip\xc8\v2.00\pic\include\pic16f887.h"
   490                           OSCTUNE equ 090h ;# 
   491  0090                     # 1981 "C:\Program Files (x86)\Microchip\xc8\v2.00\pic\include\pic16f887.h"
   492                           SSPCON2 equ 091h ;# 
   493  0091                     # 2043 "C:\Program Files (x86)\Microchip\xc8\v2.00\pic\include\pic16f887.h"
   494                           PR2 equ 092h ;# 
   495  0092                     # 2050 "C:\Program Files (x86)\Microchip\xc8\v2.00\pic\include\pic16f887.h"
   496                           SSPADD equ 093h ;# 
   497  0093                     # 2057 "C:\Program Files (x86)\Microchip\xc8\v2.00\pic\include\pic16f887.h"
   498                           SSPMSK equ 093h ;# 
   499  0093                     # 2062 "C:\Program Files (x86)\Microchip\xc8\v2.00\pic\include\pic16f887.h"
   500                           MSK equ 093h ;# 
   501  0093                     # 2179 "C:\Program Files (x86)\Microchip\xc8\v2.00\pic\include\pic16f887.h"
   502                           SSPSTAT equ 094h ;# 
   503  0094                     # 2348 "C:\Program Files (x86)\Microchip\xc8\v2.00\pic\include\pic16f887.h"
   504                           WPUB equ 095h ;# 
   505  0095                     # 2418 "C:\Program Files (x86)\Microchip\xc8\v2.00\pic\include\pic16f887.h"
   506                           IOCB equ 096h ;# 
   507  0096                     # 2488 "C:\Program Files (x86)\Microchip\xc8\v2.00\pic\include\pic16f887.h"
   508                           VRCON equ 097h ;# 
   509  0097                     # 2558 "C:\Program Files (x86)\Microchip\xc8\v2.00\pic\include\pic16f887.h"
   510                           TXSTA equ 098h ;# 
   511  0098                     # 2644 "C:\Program Files (x86)\Microchip\xc8\v2.00\pic\include\pic16f887.h"
   512                           SPBRG equ 099h ;# 
   513  0099                     # 2706 "C:\Program Files (x86)\Microchip\xc8\v2.00\pic\include\pic16f887.h"
   514                           SPBRGH equ 09Ah ;# 
   515  009A                     # 2776 "C:\Program Files (x86)\Microchip\xc8\v2.00\pic\include\pic16f887.h"
   516                           PWM1CON equ 09Bh ;# 
   517  009B                     # 2846 "C:\Program Files (x86)\Microchip\xc8\v2.00\pic\include\pic16f887.h"
   518                           ECCPAS equ 09Ch ;# 
   519  009C                     # 2928 "C:\Program Files (x86)\Microchip\xc8\v2.00\pic\include\pic16f887.h"
   520                           PSTRCON equ 09Dh ;# 
   521  009D                     # 2972 "C:\Program Files (x86)\Microchip\xc8\v2.00\pic\include\pic16f887.h"
   522                           ADRESL equ 09Eh ;# 
   523  009E                     # 2979 "C:\Program Files (x86)\Microchip\xc8\v2.00\pic\include\pic16f887.h"
   524                           ADCON1 equ 09Fh ;# 
   525  009F                     # 3013 "C:\Program Files (x86)\Microchip\xc8\v2.00\pic\include\pic16f887.h"
   526                           WDTCON equ 0105h ;# 
   527  0105                     # 3066 "C:\Program Files (x86)\Microchip\xc8\v2.00\pic\include\pic16f887.h"
   528                           CM1CON0 equ 0107h ;# 
   529  0107                     # 3131 "C:\Program Files (x86)\Microchip\xc8\v2.00\pic\include\pic16f887.h"
   530                           CM2CON0 equ 0108h ;# 
   531  0108                     # 3196 "C:\Program Files (x86)\Microchip\xc8\v2.00\pic\include\pic16f887.h"
   532                           CM2CON1 equ 0109h ;# 
   533  0109                     # 3247 "C:\Program Files (x86)\Microchip\xc8\v2.00\pic\include\pic16f887.h"
   534                           EEDATA equ 010Ch ;# 
   535  010C                     # 3252 "C:\Program Files (x86)\Microchip\xc8\v2.00\pic\include\pic16f887.h"
   536                           EEDAT equ 010Ch ;# 
   537  010C                     # 3259 "C:\Program Files (x86)\Microchip\xc8\v2.00\pic\include\pic16f887.h"
   538                           EEADR equ 010Dh ;# 
   539  010D                     # 3266 "C:\Program Files (x86)\Microchip\xc8\v2.00\pic\include\pic16f887.h"
   540                           EEDATH equ 010Eh ;# 
   541  010E                     # 3273 "C:\Program Files (x86)\Microchip\xc8\v2.00\pic\include\pic16f887.h"
   542                           EEADRH equ 010Fh ;# 
   543  010F                     # 3280 "C:\Program Files (x86)\Microchip\xc8\v2.00\pic\include\pic16f887.h"
   544                           SRCON equ 0185h ;# 
   545  0185                     # 3337 "C:\Program Files (x86)\Microchip\xc8\v2.00\pic\include\pic16f887.h"
   546                           BAUDCTL equ 0187h ;# 
   547  0187                     # 3389 "C:\Program Files (x86)\Microchip\xc8\v2.00\pic\include\pic16f887.h"
   548                           ANSEL equ 0188h ;# 
   549  0188                     # 3451 "C:\Program Files (x86)\Microchip\xc8\v2.00\pic\include\pic16f887.h"
   550                           ANSELH equ 0189h ;# 
   551  0189                     # 3501 "C:\Program Files (x86)\Microchip\xc8\v2.00\pic\include\pic16f887.h"
   552                           EECON1 equ 018Ch ;# 
   553  018C                     # 3546 "C:\Program Files (x86)\Microchip\xc8\v2.00\pic\include\pic16f887.h"
   554                           EECON2 equ 018Dh ;# 
   555  018D                     # 54 "C:\Program Files (x86)\Microchip\xc8\v2.00\pic\include\pic16f887.h"
   556                           INDF equ 00h ;# 
   557  0000                     # 61 "C:\Program Files (x86)\Microchip\xc8\v2.00\pic\include\pic16f887.h"
   558                           TMR0 equ 01h ;# 
   559  0001                     # 68 "C:\Program Files (x86)\Microchip\xc8\v2.00\pic\include\pic16f887.h"
   560                           PCL equ 02h ;# 
   561  0002                     # 75 "C:\Program Files (x86)\Microchip\xc8\v2.00\pic\include\pic16f887.h"
   562                           STATUS equ 03h ;# 
   563  0003                     # 161 "C:\Program Files (x86)\Microchip\xc8\v2.00\pic\include\pic16f887.h"
   564                           FSR equ 04h ;# 
   565  0004                     # 168 "C:\Program Files (x86)\Microchip\xc8\v2.00\pic\include\pic16f887.h"
   566                           PORTA equ 05h ;# 
   567  0005                     # 230 "C:\Program Files (x86)\Microchip\xc8\v2.00\pic\include\pic16f887.h"
   568                           PORTB equ 06h ;# 
   569  0006                     # 292 "C:\Program Files (x86)\Microchip\xc8\v2.00\pic\include\pic16f887.h"
   570                           PORTC equ 07h ;# 
   571  0007                     # 354 "C:\Program Files (x86)\Microchip\xc8\v2.00\pic\include\pic16f887.h"
   572                           PORTD equ 08h ;# 
   573  0008                     # 416 "C:\Program Files (x86)\Microchip\xc8\v2.00\pic\include\pic16f887.h"
   574                           PORTE equ 09h ;# 
   575  0009                     # 454 "C:\Program Files (x86)\Microchip\xc8\v2.00\pic\include\pic16f887.h"
   576                           PCLATH equ 0Ah ;# 
   577  000A                     # 461 "C:\Program Files (x86)\Microchip\xc8\v2.00\pic\include\pic16f887.h"
   578                           INTCON equ 0Bh ;# 
   579  000B                     # 539 "C:\Program Files (x86)\Microchip\xc8\v2.00\pic\include\pic16f887.h"
   580                           PIR1 equ 0Ch ;# 
   581  000C                     # 595 "C:\Program Files (x86)\Microchip\xc8\v2.00\pic\include\pic16f887.h"
   582                           PIR2 equ 0Dh ;# 
   583  000D                     # 652 "C:\Program Files (x86)\Microchip\xc8\v2.00\pic\include\pic16f887.h"
   584                           TMR1 equ 0Eh ;# 
   585  000E                     # 659 "C:\Program Files (x86)\Microchip\xc8\v2.00\pic\include\pic16f887.h"
   586                           TMR1L equ 0Eh ;# 
   587  000E                     # 666 "C:\Program Files (x86)\Microchip\xc8\v2.00\pic\include\pic16f887.h"
   588                           TMR1H equ 0Fh ;# 
   589  000F                     # 673 "C:\Program Files (x86)\Microchip\xc8\v2.00\pic\include\pic16f887.h"
   590                           T1CON equ 010h ;# 
   591  0010                     # 767 "C:\Program Files (x86)\Microchip\xc8\v2.00\pic\include\pic16f887.h"
   592                           TMR2 equ 011h ;# 
   593  0011                     # 774 "C:\Program Files (x86)\Microchip\xc8\v2.00\pic\include\pic16f887.h"
   594                           T2CON equ 012h ;# 
   595  0012                     # 845 "C:\Program Files (x86)\Microchip\xc8\v2.00\pic\include\pic16f887.h"
   596                           SSPBUF equ 013h ;# 
   597  0013                     # 852 "C:\Program Files (x86)\Microchip\xc8\v2.00\pic\include\pic16f887.h"
   598                           SSPCON equ 014h ;# 
   599  0014                     # 922 "C:\Program Files (x86)\Microchip\xc8\v2.00\pic\include\pic16f887.h"
   600                           CCPR1 equ 015h ;# 
   601  0015                     # 929 "C:\Program Files (x86)\Microchip\xc8\v2.00\pic\include\pic16f887.h"
   602                           CCPR1L equ 015h ;# 
   603  0015                     # 936 "C:\Program Files (x86)\Microchip\xc8\v2.00\pic\include\pic16f887.h"
   604                           CCPR1H equ 016h ;# 
   605  0016                     # 943 "C:\Program Files (x86)\Microchip\xc8\v2.00\pic\include\pic16f887.h"
   606                           CCP1CON equ 017h ;# 
   607  0017                     # 1040 "C:\Program Files (x86)\Microchip\xc8\v2.00\pic\include\pic16f887.h"
   608                           RCSTA equ 018h ;# 
   609  0018                     # 1135 "C:\Program Files (x86)\Microchip\xc8\v2.00\pic\include\pic16f887.h"
   610                           TXREG equ 019h ;# 
   611  0019                     # 1142 "C:\Program Files (x86)\Microchip\xc8\v2.00\pic\include\pic16f887.h"
   612                           RCREG equ 01Ah ;# 
   613  001A                     # 1149 "C:\Program Files (x86)\Microchip\xc8\v2.00\pic\include\pic16f887.h"
   614                           CCPR2 equ 01Bh ;# 
   615  001B                     # 1156 "C:\Program Files (x86)\Microchip\xc8\v2.00\pic\include\pic16f887.h"
   616                           CCPR2L equ 01Bh ;# 
   617  001B                     # 1163 "C:\Program Files (x86)\Microchip\xc8\v2.00\pic\include\pic16f887.h"
   618                           CCPR2H equ 01Ch ;# 
   619  001C                     # 1170 "C:\Program Files (x86)\Microchip\xc8\v2.00\pic\include\pic16f887.h"
   620                           CCP2CON equ 01Dh ;# 
   621  001D                     # 1240 "C:\Program Files (x86)\Microchip\xc8\v2.00\pic\include\pic16f887.h"
   622                           ADRESH equ 01Eh ;# 
   623  001E                     # 1247 "C:\Program Files (x86)\Microchip\xc8\v2.00\pic\include\pic16f887.h"
   624                           ADCON0 equ 01Fh ;# 
   625  001F                     # 1348 "C:\Program Files (x86)\Microchip\xc8\v2.00\pic\include\pic16f887.h"
   626                           OPTION_REG equ 081h ;# 
   627  0081                     # 1418 "C:\Program Files (x86)\Microchip\xc8\v2.00\pic\include\pic16f887.h"
   628                           TRISA equ 085h ;# 
   629  0085                     # 1480 "C:\Program Files (x86)\Microchip\xc8\v2.00\pic\include\pic16f887.h"
   630                           TRISB equ 086h ;# 
   631  0086                     # 1542 "C:\Program Files (x86)\Microchip\xc8\v2.00\pic\include\pic16f887.h"
   632                           TRISC equ 087h ;# 
   633  0087                     # 1604 "C:\Program Files (x86)\Microchip\xc8\v2.00\pic\include\pic16f887.h"
   634                           TRISD equ 088h ;# 
   635  0088                     # 1666 "C:\Program Files (x86)\Microchip\xc8\v2.00\pic\include\pic16f887.h"
   636                           TRISE equ 089h ;# 
   637  0089                     # 1704 "C:\Program Files (x86)\Microchip\xc8\v2.00\pic\include\pic16f887.h"
   638                           PIE1 equ 08Ch ;# 
   639  008C                     # 1760 "C:\Program Files (x86)\Microchip\xc8\v2.00\pic\include\pic16f887.h"
   640                           PIE2 equ 08Dh ;# 
   641  008D                     # 1817 "C:\Program Files (x86)\Microchip\xc8\v2.00\pic\include\pic16f887.h"
   642                           PCON equ 08Eh ;# 
   643  008E                     # 1864 "C:\Program Files (x86)\Microchip\xc8\v2.00\pic\include\pic16f887.h"
   644                           OSCCON equ 08Fh ;# 
   645  008F                     # 1929 "C:\Program Files (x86)\Microchip\xc8\v2.00\pic\include\pic16f887.h"
   646                           OSCTUNE equ 090h ;# 
   647  0090                     # 1981 "C:\Program Files (x86)\Microchip\xc8\v2.00\pic\include\pic16f887.h"
   648                           SSPCON2 equ 091h ;# 
   649  0091                     # 2043 "C:\Program Files (x86)\Microchip\xc8\v2.00\pic\include\pic16f887.h"
   650                           PR2 equ 092h ;# 
   651  0092                     # 2050 "C:\Program Files (x86)\Microchip\xc8\v2.00\pic\include\pic16f887.h"
   652                           SSPADD equ 093h ;# 
   653  0093                     # 2057 "C:\Program Files (x86)\Microchip\xc8\v2.00\pic\include\pic16f887.h"
   654                           SSPMSK equ 093h ;# 
   655  0093                     # 2062 "C:\Program Files (x86)\Microchip\xc8\v2.00\pic\include\pic16f887.h"
   656                           MSK equ 093h ;# 
   657  0093                     # 2179 "C:\Program Files (x86)\Microchip\xc8\v2.00\pic\include\pic16f887.h"
   658                           SSPSTAT equ 094h ;# 
   659  0094                     # 2348 "C:\Program Files (x86)\Microchip\xc8\v2.00\pic\include\pic16f887.h"
   660                           WPUB equ 095h ;# 
   661  0095                     # 2418 "C:\Program Files (x86)\Microchip\xc8\v2.00\pic\include\pic16f887.h"
   662                           IOCB equ 096h ;# 
   663  0096                     # 2488 "C:\Program Files (x86)\Microchip\xc8\v2.00\pic\include\pic16f887.h"
   664                           VRCON equ 097h ;# 
   665  0097                     # 2558 "C:\Program Files (x86)\Microchip\xc8\v2.00\pic\include\pic16f887.h"
   666                           TXSTA equ 098h ;# 
   667  0098                     # 2644 "C:\Program Files (x86)\Microchip\xc8\v2.00\pic\include\pic16f887.h"
   668                           SPBRG equ 099h ;# 
   669  0099                     # 2706 "C:\Program Files (x86)\Microchip\xc8\v2.00\pic\include\pic16f887.h"
   670                           SPBRGH equ 09Ah ;# 
   671  009A                     # 2776 "C:\Program Files (x86)\Microchip\xc8\v2.00\pic\include\pic16f887.h"
   672                           PWM1CON equ 09Bh ;# 
   673  009B                     # 2846 "C:\Program Files (x86)\Microchip\xc8\v2.00\pic\include\pic16f887.h"
   674                           ECCPAS equ 09Ch ;# 
   675  009C                     # 2928 "C:\Program Files (x86)\Microchip\xc8\v2.00\pic\include\pic16f887.h"
   676                           PSTRCON equ 09Dh ;# 
   677  009D                     # 2972 "C:\Program Files (x86)\Microchip\xc8\v2.00\pic\include\pic16f887.h"
   678                           ADRESL equ 09Eh ;# 
   679  009E                     # 2979 "C:\Program Files (x86)\Microchip\xc8\v2.00\pic\include\pic16f887.h"
   680                           ADCON1 equ 09Fh ;# 
   681  009F                     # 3013 "C:\Program Files (x86)\Microchip\xc8\v2.00\pic\include\pic16f887.h"
   682                           WDTCON equ 0105h ;# 
   683  0105                     # 3066 "C:\Program Files (x86)\Microchip\xc8\v2.00\pic\include\pic16f887.h"
   684                           CM1CON0 equ 0107h ;# 
   685  0107                     # 3131 "C:\Program Files (x86)\Microchip\xc8\v2.00\pic\include\pic16f887.h"
   686                           CM2CON0 equ 0108h ;# 
   687  0108                     # 3196 "C:\Program Files (x86)\Microchip\xc8\v2.00\pic\include\pic16f887.h"
   688                           CM2CON1 equ 0109h ;# 
   689  0109                     # 3247 "C:\Program Files (x86)\Microchip\xc8\v2.00\pic\include\pic16f887.h"
   690                           EEDATA equ 010Ch ;# 
   691  010C                     # 3252 "C:\Program Files (x86)\Microchip\xc8\v2.00\pic\include\pic16f887.h"
   692                           EEDAT equ 010Ch ;# 
   693  010C                     # 3259 "C:\Program Files (x86)\Microchip\xc8\v2.00\pic\include\pic16f887.h"
   694                           EEADR equ 010Dh ;# 
   695  010D                     # 3266 "C:\Program Files (x86)\Microchip\xc8\v2.00\pic\include\pic16f887.h"
   696                           EEDATH equ 010Eh ;# 
   697  010E                     # 3273 "C:\Program Files (x86)\Microchip\xc8\v2.00\pic\include\pic16f887.h"
   698                           EEADRH equ 010Fh ;# 
   699  010F                     # 3280 "C:\Program Files (x86)\Microchip\xc8\v2.00\pic\include\pic16f887.h"
   700                           SRCON equ 0185h ;# 
   701  0185                     # 3337 "C:\Program Files (x86)\Microchip\xc8\v2.00\pic\include\pic16f887.h"
   702                           BAUDCTL equ 0187h ;# 
   703  0187                     # 3389 "C:\Program Files (x86)\Microchip\xc8\v2.00\pic\include\pic16f887.h"
   704                           ANSEL equ 0188h ;# 
   705  0188                     # 3451 "C:\Program Files (x86)\Microchip\xc8\v2.00\pic\include\pic16f887.h"
   706                           ANSELH equ 0189h ;# 
   707  0189                     # 3501 "C:\Program Files (x86)\Microchip\xc8\v2.00\pic\include\pic16f887.h"
   708                           EECON1 equ 018Ch ;# 
   709  018C                     # 3546 "C:\Program Files (x86)\Microchip\xc8\v2.00\pic\include\pic16f887.h"
   710                           EECON2 equ 018Dh ;# 
   711  018D                     # 54 "C:\Program Files (x86)\Microchip\xc8\v2.00\pic\include\pic16f887.h"
   712                           INDF equ 00h ;# 
   713  0000                     # 61 "C:\Program Files (x86)\Microchip\xc8\v2.00\pic\include\pic16f887.h"
   714                           TMR0 equ 01h ;# 
   715  0001                     # 68 "C:\Program Files (x86)\Microchip\xc8\v2.00\pic\include\pic16f887.h"
   716                           PCL equ 02h ;# 
   717  0002                     # 75 "C:\Program Files (x86)\Microchip\xc8\v2.00\pic\include\pic16f887.h"
   718                           STATUS equ 03h ;# 
   719  0003                     # 161 "C:\Program Files (x86)\Microchip\xc8\v2.00\pic\include\pic16f887.h"
   720                           FSR equ 04h ;# 
   721  0004                     # 168 "C:\Program Files (x86)\Microchip\xc8\v2.00\pic\include\pic16f887.h"
   722                           PORTA equ 05h ;# 
   723  0005                     # 230 "C:\Program Files (x86)\Microchip\xc8\v2.00\pic\include\pic16f887.h"
   724                           PORTB equ 06h ;# 
   725  0006                     # 292 "C:\Program Files (x86)\Microchip\xc8\v2.00\pic\include\pic16f887.h"
   726                           PORTC equ 07h ;# 
   727  0007                     # 354 "C:\Program Files (x86)\Microchip\xc8\v2.00\pic\include\pic16f887.h"
   728                           PORTD equ 08h ;# 
   729  0008                     # 416 "C:\Program Files (x86)\Microchip\xc8\v2.00\pic\include\pic16f887.h"
   730                           PORTE equ 09h ;# 
   731  0009                     # 454 "C:\Program Files (x86)\Microchip\xc8\v2.00\pic\include\pic16f887.h"
   732                           PCLATH equ 0Ah ;# 
   733  000A                     # 461 "C:\Program Files (x86)\Microchip\xc8\v2.00\pic\include\pic16f887.h"
   734                           INTCON equ 0Bh ;# 
   735  000B                     # 539 "C:\Program Files (x86)\Microchip\xc8\v2.00\pic\include\pic16f887.h"
   736                           PIR1 equ 0Ch ;# 
   737  000C                     # 595 "C:\Program Files (x86)\Microchip\xc8\v2.00\pic\include\pic16f887.h"
   738                           PIR2 equ 0Dh ;# 
   739  000D                     # 652 "C:\Program Files (x86)\Microchip\xc8\v2.00\pic\include\pic16f887.h"
   740                           TMR1 equ 0Eh ;# 
   741  000E                     # 659 "C:\Program Files (x86)\Microchip\xc8\v2.00\pic\include\pic16f887.h"
   742                           TMR1L equ 0Eh ;# 
   743  000E                     # 666 "C:\Program Files (x86)\Microchip\xc8\v2.00\pic\include\pic16f887.h"
   744                           TMR1H equ 0Fh ;# 
   745  000F                     # 673 "C:\Program Files (x86)\Microchip\xc8\v2.00\pic\include\pic16f887.h"
   746                           T1CON equ 010h ;# 
   747  0010                     # 767 "C:\Program Files (x86)\Microchip\xc8\v2.00\pic\include\pic16f887.h"
   748                           TMR2 equ 011h ;# 
   749  0011                     # 774 "C:\Program Files (x86)\Microchip\xc8\v2.00\pic\include\pic16f887.h"
   750                           T2CON equ 012h ;# 
   751  0012                     # 845 "C:\Program Files (x86)\Microchip\xc8\v2.00\pic\include\pic16f887.h"
   752                           SSPBUF equ 013h ;# 
   753  0013                     # 852 "C:\Program Files (x86)\Microchip\xc8\v2.00\pic\include\pic16f887.h"
   754                           SSPCON equ 014h ;# 
   755  0014                     # 922 "C:\Program Files (x86)\Microchip\xc8\v2.00\pic\include\pic16f887.h"
   756                           CCPR1 equ 015h ;# 
   757  0015                     # 929 "C:\Program Files (x86)\Microchip\xc8\v2.00\pic\include\pic16f887.h"
   758                           CCPR1L equ 015h ;# 
   759  0015                     # 936 "C:\Program Files (x86)\Microchip\xc8\v2.00\pic\include\pic16f887.h"
   760                           CCPR1H equ 016h ;# 
   761  0016                     # 943 "C:\Program Files (x86)\Microchip\xc8\v2.00\pic\include\pic16f887.h"
   762                           CCP1CON equ 017h ;# 
   763  0017                     # 1040 "C:\Program Files (x86)\Microchip\xc8\v2.00\pic\include\pic16f887.h"
   764                           RCSTA equ 018h ;# 
   765  0018                     # 1135 "C:\Program Files (x86)\Microchip\xc8\v2.00\pic\include\pic16f887.h"
   766                           TXREG equ 019h ;# 
   767  0019                     # 1142 "C:\Program Files (x86)\Microchip\xc8\v2.00\pic\include\pic16f887.h"
   768                           RCREG equ 01Ah ;# 
   769  001A                     # 1149 "C:\Program Files (x86)\Microchip\xc8\v2.00\pic\include\pic16f887.h"
   770                           CCPR2 equ 01Bh ;# 
   771  001B                     # 1156 "C:\Program Files (x86)\Microchip\xc8\v2.00\pic\include\pic16f887.h"
   772                           CCPR2L equ 01Bh ;# 
   773  001B                     # 1163 "C:\Program Files (x86)\Microchip\xc8\v2.00\pic\include\pic16f887.h"
   774                           CCPR2H equ 01Ch ;# 
   775  001C                     # 1170 "C:\Program Files (x86)\Microchip\xc8\v2.00\pic\include\pic16f887.h"
   776                           CCP2CON equ 01Dh ;# 
   777  001D                     # 1240 "C:\Program Files (x86)\Microchip\xc8\v2.00\pic\include\pic16f887.h"
   778                           ADRESH equ 01Eh ;# 
   779  001E                     # 1247 "C:\Program Files (x86)\Microchip\xc8\v2.00\pic\include\pic16f887.h"
   780                           ADCON0 equ 01Fh ;# 
   781  001F                     # 1348 "C:\Program Files (x86)\Microchip\xc8\v2.00\pic\include\pic16f887.h"
   782                           OPTION_REG equ 081h ;# 
   783  0081                     # 1418 "C:\Program Files (x86)\Microchip\xc8\v2.00\pic\include\pic16f887.h"
   784                           TRISA equ 085h ;# 
   785  0085                     # 1480 "C:\Program Files (x86)\Microchip\xc8\v2.00\pic\include\pic16f887.h"
   786                           TRISB equ 086h ;# 
   787  0086                     # 1542 "C:\Program Files (x86)\Microchip\xc8\v2.00\pic\include\pic16f887.h"
   788                           TRISC equ 087h ;# 
   789  0087                     # 1604 "C:\Program Files (x86)\Microchip\xc8\v2.00\pic\include\pic16f887.h"
   790                           TRISD equ 088h ;# 
   791  0088                     # 1666 "C:\Program Files (x86)\Microchip\xc8\v2.00\pic\include\pic16f887.h"
   792                           TRISE equ 089h ;# 
   793  0089                     # 1704 "C:\Program Files (x86)\Microchip\xc8\v2.00\pic\include\pic16f887.h"
   794                           PIE1 equ 08Ch ;# 
   795  008C                     # 1760 "C:\Program Files (x86)\Microchip\xc8\v2.00\pic\include\pic16f887.h"
   796                           PIE2 equ 08Dh ;# 
   797  008D                     # 1817 "C:\Program Files (x86)\Microchip\xc8\v2.00\pic\include\pic16f887.h"
   798                           PCON equ 08Eh ;# 
   799  008E                     # 1864 "C:\Program Files (x86)\Microchip\xc8\v2.00\pic\include\pic16f887.h"
   800                           OSCCON equ 08Fh ;# 
   801  008F                     # 1929 "C:\Program Files (x86)\Microchip\xc8\v2.00\pic\include\pic16f887.h"
   802                           OSCTUNE equ 090h ;# 
   803  0090                     # 1981 "C:\Program Files (x86)\Microchip\xc8\v2.00\pic\include\pic16f887.h"
   804                           SSPCON2 equ 091h ;# 
   805  0091                     # 2043 "C:\Program Files (x86)\Microchip\xc8\v2.00\pic\include\pic16f887.h"
   806                           PR2 equ 092h ;# 
   807  0092                     # 2050 "C:\Program Files (x86)\Microchip\xc8\v2.00\pic\include\pic16f887.h"
   808                           SSPADD equ 093h ;# 
   809  0093                     # 2057 "C:\Program Files (x86)\Microchip\xc8\v2.00\pic\include\pic16f887.h"
   810                           SSPMSK equ 093h ;# 
   811  0093                     # 2062 "C:\Program Files (x86)\Microchip\xc8\v2.00\pic\include\pic16f887.h"
   812                           MSK equ 093h ;# 
   813  0093                     # 2179 "C:\Program Files (x86)\Microchip\xc8\v2.00\pic\include\pic16f887.h"
   814                           SSPSTAT equ 094h ;# 
   815  0094                     # 2348 "C:\Program Files (x86)\Microchip\xc8\v2.00\pic\include\pic16f887.h"
   816                           WPUB equ 095h ;# 
   817  0095                     # 2418 "C:\Program Files (x86)\Microchip\xc8\v2.00\pic\include\pic16f887.h"
   818                           IOCB equ 096h ;# 
   819  0096                     # 2488 "C:\Program Files (x86)\Microchip\xc8\v2.00\pic\include\pic16f887.h"
   820                           VRCON equ 097h ;# 
   821  0097                     # 2558 "C:\Program Files (x86)\Microchip\xc8\v2.00\pic\include\pic16f887.h"
   822                           TXSTA equ 098h ;# 
   823  0098                     # 2644 "C:\Program Files (x86)\Microchip\xc8\v2.00\pic\include\pic16f887.h"
   824                           SPBRG equ 099h ;# 
   825  0099                     # 2706 "C:\Program Files (x86)\Microchip\xc8\v2.00\pic\include\pic16f887.h"
   826                           SPBRGH equ 09Ah ;# 
   827  009A                     # 2776 "C:\Program Files (x86)\Microchip\xc8\v2.00\pic\include\pic16f887.h"
   828                           PWM1CON equ 09Bh ;# 
   829  009B                     # 2846 "C:\Program Files (x86)\Microchip\xc8\v2.00\pic\include\pic16f887.h"
   830                           ECCPAS equ 09Ch ;# 
   831  009C                     # 2928 "C:\Program Files (x86)\Microchip\xc8\v2.00\pic\include\pic16f887.h"
   832                           PSTRCON equ 09Dh ;# 
   833  009D                     # 2972 "C:\Program Files (x86)\Microchip\xc8\v2.00\pic\include\pic16f887.h"
   834                           ADRESL equ 09Eh ;# 
   835  009E                     # 2979 "C:\Program Files (x86)\Microchip\xc8\v2.00\pic\include\pic16f887.h"
   836                           ADCON1 equ 09Fh ;# 
   837  009F                     # 3013 "C:\Program Files (x86)\Microchip\xc8\v2.00\pic\include\pic16f887.h"
   838                           WDTCON equ 0105h ;# 
   839  0105                     # 3066 "C:\Program Files (x86)\Microchip\xc8\v2.00\pic\include\pic16f887.h"
   840                           CM1CON0 equ 0107h ;# 
   841  0107                     # 3131 "C:\Program Files (x86)\Microchip\xc8\v2.00\pic\include\pic16f887.h"
   842                           CM2CON0 equ 0108h ;# 
   843  0108                     # 3196 "C:\Program Files (x86)\Microchip\xc8\v2.00\pic\include\pic16f887.h"
   844                           CM2CON1 equ 0109h ;# 
   845  0109                     # 3247 "C:\Program Files (x86)\Microchip\xc8\v2.00\pic\include\pic16f887.h"
   846                           EEDATA equ 010Ch ;# 
   847  010C                     # 3252 "C:\Program Files (x86)\Microchip\xc8\v2.00\pic\include\pic16f887.h"
   848                           EEDAT equ 010Ch ;# 
   849  010C                     # 3259 "C:\Program Files (x86)\Microchip\xc8\v2.00\pic\include\pic16f887.h"
   850                           EEADR equ 010Dh ;# 
   851  010D                     # 3266 "C:\Program Files (x86)\Microchip\xc8\v2.00\pic\include\pic16f887.h"
   852                           EEDATH equ 010Eh ;# 
   853  010E                     # 3273 "C:\Program Files (x86)\Microchip\xc8\v2.00\pic\include\pic16f887.h"
   854                           EEADRH equ 010Fh ;# 
   855  010F                     # 3280 "C:\Program Files (x86)\Microchip\xc8\v2.00\pic\include\pic16f887.h"
   856                           SRCON equ 0185h ;# 
   857  0185                     # 3337 "C:\Program Files (x86)\Microchip\xc8\v2.00\pic\include\pic16f887.h"
   858                           BAUDCTL equ 0187h ;# 
   859  0187                     # 3389 "C:\Program Files (x86)\Microchip\xc8\v2.00\pic\include\pic16f887.h"
   860                           ANSEL equ 0188h ;# 
   861  0188                     # 3451 "C:\Program Files (x86)\Microchip\xc8\v2.00\pic\include\pic16f887.h"
   862                           ANSELH equ 0189h ;# 
   863  0189                     # 3501 "C:\Program Files (x86)\Microchip\xc8\v2.00\pic\include\pic16f887.h"
   864                           EECON1 equ 018Ch ;# 
   865  018C                     # 3546 "C:\Program Files (x86)\Microchip\xc8\v2.00\pic\include\pic16f887.h"
   866                           EECON2 equ 018Dh ;# 
   867  018D                     	FNCALL	_main,_config
   868                           	FNCALL	_main,_spiWrite
   869                           	FNCALL	_main,_write_volume
   870                           	FNCALL	_write_volume,_spiWrite
   871                           	FNCALL	_write_volume,_white_space
   872                           	FNCALL	_white_space,_spiWrite
   873                           	FNROOT	_main
   874                           	global	_font
   875                           psect	stringtext,class=STRCODE,delta=2,reloc=256,noexec
   876                           global __pstringtext
   877                           __pstringtext:
   878  0800                     stringtab:
   879  0800                     	global    __stringtab
   880                           __stringtab:
   881  0800                     ;	String table - string pointers are 2 bytes each
   882                           	btfsc	(btemp+1),7
   883  0800  1BFF               	ljmp	stringcode
   884  0801  280A               	bcf	status,7
   885  0802  1383               	btfsc	(btemp+1),0
   886  0803  187F               	bsf	status,7
   887  0804  1783               	movf	indf,w
   888  0805  0800               	incf fsr
   889  0806  0A84               skipnz
   890  0807  1903               incf btemp+1
   891  0808  0AFF               	return
   892  0809  0008               stringcode:
   893  080A                     	movf btemp+1,w
   894  080A  087F               andlw 7Fh
   895  080B  397F               movwf	pclath
   896  080C  008A               	movf	fsr,w
   897  080D  0804               incf fsr
   898  080E  0A84               skipnz
   899  080F  1903               incf btemp+1
   900  0810  0AFF               	movwf pc
   901  0811  0082               	global __stringbase
   902                           __stringbase:
   903  0812                     	global    __end_of__stringtab
   904                           __end_of__stringtab:
   905  0812                     	file	"./Font.h"
   906                           	line	4
   907                           _font:
   908  0812                     	retlw	03Eh
   909  0812  343E               	retlw	0
   910  0813  3400               
   911                           	retlw	051h
   912  0814  3451               	retlw	0
   913  0815  3400               
   914                           	retlw	049h
   915  0816  3449               	retlw	0
   916  0817  3400               
   917                           	retlw	045h
   918  0818  3445               	retlw	0
   919  0819  3400               
   920                           	retlw	03Eh
   921  081A  343E               	retlw	0
   922  081B  3400               
   923                           	retlw	low(0)
   924  081C  3400               	retlw	high(0)
   925  081D  3400               
   926                           	retlw	042h
   927  081E  3442               	retlw	0
   928  081F  3400               
   929                           	retlw	07Fh
   930  0820  347F               	retlw	0
   931  0821  3400               
   932                           	retlw	040h
   933  0822  3440               	retlw	0
   934  0823  3400               
   935                           	retlw	low(0)
   936  0824  3400               	retlw	high(0)
   937  0825  3400               
   938                           	retlw	042h
   939  0826  3442               	retlw	0
   940  0827  3400               
   941                           	retlw	061h
   942  0828  3461               	retlw	0
   943  0829  3400               
   944                           	retlw	051h
   945  082A  3451               	retlw	0
   946  082B  3400               
   947                           	retlw	049h
   948  082C  3449               	retlw	0
   949  082D  3400               
   950                           	retlw	046h
   951  082E  3446               	retlw	0
   952  082F  3400               
   953                           	retlw	021h
   954  0830  3421               	retlw	0
   955  0831  3400               
   956                           	retlw	041h
   957  0832  3441               	retlw	0
   958  0833  3400               
   959                           	retlw	045h
   960  0834  3445               	retlw	0
   961  0835  3400               
   962                           	retlw	04Bh
   963  0836  344B               	retlw	0
   964  0837  3400               
   965                           	retlw	031h
   966  0838  3431               	retlw	0
   967  0839  3400               
   968                           	retlw	018h
   969  083A  3418               	retlw	0
   970  083B  3400               
   971                           	retlw	014h
   972  083C  3414               	retlw	0
   973  083D  3400               
   974                           	retlw	012h
   975  083E  3412               	retlw	0
   976  083F  3400               
   977                           	retlw	07Fh
   978  0840  347F               	retlw	0
   979  0841  3400               
   980                           	retlw	010h
   981  0842  3410               	retlw	0
   982  0843  3400               
   983                           	retlw	027h
   984  0844  3427               	retlw	0
   985  0845  3400               
   986                           	retlw	045h
   987  0846  3445               	retlw	0
   988  0847  3400               
   989                           	retlw	045h
   990  0848  3445               	retlw	0
   991  0849  3400               
   992                           	retlw	045h
   993  084A  3445               	retlw	0
   994  084B  3400               
   995                           	retlw	039h
   996  084C  3439               	retlw	0
   997  084D  3400               
   998                           	retlw	03Ch
   999  084E  343C               	retlw	0
  1000  084F  3400               
  1001                           	retlw	04Ah
  1002  0850  344A               	retlw	0
  1003  0851  3400               
  1004                           	retlw	049h
  1005  0852  3449               	retlw	0
  1006  0853  3400               
  1007                           	retlw	049h
  1008  0854  3449               	retlw	0
  1009  0855  3400               
  1010                           	retlw	030h
  1011  0856  3430               	retlw	0
  1012  0857  3400               
  1013                           	retlw	01h
  1014  0858  3401               	retlw	0
  1015  0859  3400               
  1016                           	retlw	071h
  1017  085A  3471               	retlw	0
  1018  085B  3400               
  1019                           	retlw	09h
  1020  085C  3409               	retlw	0
  1021  085D  3400               
  1022                           	retlw	05h
  1023  085E  3405               	retlw	0
  1024  085F  3400               
  1025                           	retlw	03h
  1026  0860  3403               	retlw	0
  1027  0861  3400               
  1028                           	retlw	036h
  1029  0862  3436               	retlw	0
  1030  0863  3400               
  1031                           	retlw	049h
  1032  0864  3449               	retlw	0
  1033  0865  3400               
  1034                           	retlw	049h
  1035  0866  3449               	retlw	0
  1036  0867  3400               
  1037                           	retlw	049h
  1038  0868  3449               	retlw	0
  1039  0869  3400               
  1040                           	retlw	036h
  1041  086A  3436               	retlw	0
  1042  086B  3400               
  1043                           	retlw	06h
  1044  086C  3406               	retlw	0
  1045  086D  3400               
  1046                           	retlw	049h
  1047  086E  3449               	retlw	0
  1048  086F  3400               
  1049                           	retlw	049h
  1050  0870  3449               	retlw	0
  1051  0871  3400               
  1052                           	retlw	029h
  1053  0872  3429               	retlw	0
  1054  0873  3400               
  1055                           	retlw	01Eh
  1056  0874  341E               	retlw	0
  1057  0875  3400               
  1058                           	retlw	07Eh
  1059  0876  347E               	retlw	0
  1060  0877  3400               
  1061                           	retlw	011h
  1062  0878  3411               	retlw	0
  1063  0879  3400               
  1064                           	retlw	011h
  1065  087A  3411               	retlw	0
  1066  087B  3400               
  1067                           	retlw	011h
  1068  087C  3411               	retlw	0
  1069  087D  3400               
  1070                           	retlw	07Eh
  1071  087E  347E               	retlw	0
  1072  087F  3400               
  1073                           	retlw	07Fh
  1074  0880  347F               	retlw	0
  1075  0881  3400               
  1076                           	retlw	049h
  1077  0882  3449               	retlw	0
  1078  0883  3400               
  1079                           	retlw	049h
  1080  0884  3449               	retlw	0
  1081  0885  3400               
  1082                           	retlw	049h
  1083  0886  3449               	retlw	0
  1084  0887  3400               
  1085                           	retlw	036h
  1086  0888  3436               	retlw	0
  1087  0889  3400               
  1088                           	retlw	03Eh
  1089  088A  343E               	retlw	0
  1090  088B  3400               
  1091                           	retlw	041h
  1092  088C  3441               	retlw	0
  1093  088D  3400               
  1094                           	retlw	041h
  1095  088E  3441               	retlw	0
  1096  088F  3400               
  1097                           	retlw	041h
  1098  0890  3441               	retlw	0
  1099  0891  3400               
  1100                           	retlw	022h
  1101  0892  3422               	retlw	0
  1102  0893  3400               
  1103                           	retlw	07Fh
  1104  0894  347F               	retlw	0
  1105  0895  3400               
  1106                           	retlw	041h
  1107  0896  3441               	retlw	0
  1108  0897  3400               
  1109                           	retlw	041h
  1110  0898  3441               	retlw	0
  1111  0899  3400               
  1112                           	retlw	022h
  1113  089A  3422               	retlw	0
  1114  089B  3400               
  1115                           	retlw	01Ch
  1116  089C  341C               	retlw	0
  1117  089D  3400               
  1118                           	retlw	07Fh
  1119  089E  347F               	retlw	0
  1120  089F  3400               
  1121                           	retlw	049h
  1122  08A0  3449               	retlw	0
  1123  08A1  3400               
  1124                           	retlw	049h
  1125  08A2  3449               	retlw	0
  1126  08A3  3400               
  1127                           	retlw	049h
  1128  08A4  3449               	retlw	0
  1129  08A5  3400               
  1130                           	retlw	041h
  1131  08A6  3441               	retlw	0
  1132  08A7  3400               
  1133                           	retlw	07Fh
  1134  08A8  347F               	retlw	0
  1135  08A9  3400               
  1136                           	retlw	09h
  1137  08AA  3409               	retlw	0
  1138  08AB  3400               
  1139                           	retlw	09h
  1140  08AC  3409               	retlw	0
  1141  08AD  3400               
  1142                           	retlw	01h
  1143  08AE  3401               	retlw	0
  1144  08AF  3400               
  1145                           	retlw	01h
  1146  08B0  3401               	retlw	0
  1147  08B1  3400               
  1148                           	retlw	03Eh
  1149  08B2  343E               	retlw	0
  1150  08B3  3400               
  1151                           	retlw	041h
  1152  08B4  3441               	retlw	0
  1153  08B5  3400               
  1154                           	retlw	041h
  1155  08B6  3441               	retlw	0
  1156  08B7  3400               
  1157                           	retlw	051h
  1158  08B8  3451               	retlw	0
  1159  08B9  3400               
  1160                           	retlw	032h
  1161  08BA  3432               	retlw	0
  1162  08BB  3400               
  1163                           	retlw	07Fh
  1164  08BC  347F               	retlw	0
  1165  08BD  3400               
  1166                           	retlw	08h
  1167  08BE  3408               	retlw	0
  1168  08BF  3400               
  1169                           	retlw	08h
  1170  08C0  3408               	retlw	0
  1171  08C1  3400               
  1172                           	retlw	08h
  1173  08C2  3408               	retlw	0
  1174  08C3  3400               
  1175                           	retlw	07Fh
  1176  08C4  347F               	retlw	0
  1177  08C5  3400               
  1178                           	retlw	low(0)
  1179  08C6  3400               	retlw	high(0)
  1180  08C7  3400               
  1181                           	retlw	041h
  1182  08C8  3441               	retlw	0
  1183  08C9  3400               
  1184                           	retlw	07Fh
  1185  08CA  347F               	retlw	0
  1186  08CB  3400               
  1187                           	retlw	041h
  1188  08CC  3441               	retlw	0
  1189  08CD  3400               
  1190                           	retlw	low(0)
  1191  08CE  3400               	retlw	high(0)
  1192  08CF  3400               
  1193                           	retlw	020h
  1194  08D0  3420               	retlw	0
  1195  08D1  3400               
  1196                           	retlw	040h
  1197  08D2  3440               	retlw	0
  1198  08D3  3400               
  1199                           	retlw	041h
  1200  08D4  3441               	retlw	0
  1201  08D5  3400               
  1202                           	retlw	03Fh
  1203  08D6  343F               	retlw	0
  1204  08D7  3400               
  1205                           	retlw	01h
  1206  08D8  3401               	retlw	0
  1207  08D9  3400               
  1208                           	retlw	07Fh
  1209  08DA  347F               	retlw	0
  1210  08DB  3400               
  1211                           	retlw	08h
  1212  08DC  3408               	retlw	0
  1213  08DD  3400               
  1214                           	retlw	014h
  1215  08DE  3414               	retlw	0
  1216  08DF  3400               
  1217                           	retlw	022h
  1218  08E0  3422               	retlw	0
  1219  08E1  3400               
  1220                           	retlw	041h
  1221  08E2  3441               	retlw	0
  1222  08E3  3400               
  1223                           	retlw	07Fh
  1224  08E4  347F               	retlw	0
  1225  08E5  3400               
  1226                           	retlw	040h
  1227  08E6  3440               	retlw	0
  1228  08E7  3400               
  1229                           	retlw	040h
  1230  08E8  3440               	retlw	0
  1231  08E9  3400               
  1232                           	retlw	040h
  1233  08EA  3440               	retlw	0
  1234  08EB  3400               
  1235                           	retlw	040h
  1236  08EC  3440               	retlw	0
  1237  08ED  3400               
  1238                           	retlw	07Fh
  1239  08EE  347F               	retlw	0
  1240  08EF  3400               
  1241                           	retlw	02h
  1242  08F0  3402               	retlw	0
  1243  08F1  3400               
  1244                           	retlw	04h
  1245  08F2  3404               	retlw	0
  1246  08F3  3400               
  1247                           	retlw	02h
  1248  08F4  3402               	retlw	0
  1249  08F5  3400               
  1250                           	retlw	07Fh
  1251  08F6  347F               	retlw	0
  1252  08F7  3400               
  1253                           	retlw	07Fh
  1254  08F8  347F               	retlw	0
  1255  08F9  3400               
  1256                           	retlw	04h
  1257  08FA  3404               	retlw	0
  1258  08FB  3400               
  1259                           	retlw	08h
  1260  08FC  3408               	retlw	0
  1261  08FD  3400               
  1262                           	retlw	010h
  1263  08FE  3410               	retlw	0
  1264  08FF  3400               
  1265                           	retlw	07Fh
  1266  0900  347F               	retlw	0
  1267  0901  3400               
  1268                           	retlw	03Eh
  1269  0902  343E               	retlw	0
  1270  0903  3400               
  1271                           	retlw	041h
  1272  0904  3441               	retlw	0
  1273  0905  3400               
  1274                           	retlw	041h
  1275  0906  3441               	retlw	0
  1276  0907  3400               
  1277                           	retlw	041h
  1278  0908  3441               	retlw	0
  1279  0909  3400               
  1280                           	retlw	03Eh
  1281  090A  343E               	retlw	0
  1282  090B  3400               
  1283                           	retlw	07Fh
  1284  090C  347F               	retlw	0
  1285  090D  3400               
  1286                           	retlw	09h
  1287  090E  3409               	retlw	0
  1288  090F  3400               
  1289                           	retlw	09h
  1290  0910  3409               	retlw	0
  1291  0911  3400               
  1292                           	retlw	09h
  1293  0912  3409               	retlw	0
  1294  0913  3400               
  1295                           	retlw	06h
  1296  0914  3406               	retlw	0
  1297  0915  3400               
  1298                           	retlw	03Eh
  1299  0916  343E               	retlw	0
  1300  0917  3400               
  1301                           	retlw	041h
  1302  0918  3441               	retlw	0
  1303  0919  3400               
  1304                           	retlw	051h
  1305  091A  3451               	retlw	0
  1306  091B  3400               
  1307                           	retlw	021h
  1308  091C  3421               	retlw	0
  1309  091D  3400               
  1310                           	retlw	05Eh
  1311  091E  345E               	retlw	0
  1312  091F  3400               
  1313                           	retlw	07Fh
  1314  0920  347F               	retlw	0
  1315  0921  3400               
  1316                           	retlw	09h
  1317  0922  3409               	retlw	0
  1318  0923  3400               
  1319                           	retlw	019h
  1320  0924  3419               	retlw	0
  1321  0925  3400               
  1322                           	retlw	029h
  1323  0926  3429               	retlw	0
  1324  0927  3400               
  1325                           	retlw	046h
  1326  0928  3446               	retlw	0
  1327  0929  3400               
  1328                           	retlw	046h
  1329  092A  3446               	retlw	0
  1330  092B  3400               
  1331                           	retlw	049h
  1332  092C  3449               	retlw	0
  1333  092D  3400               
  1334                           	retlw	049h
  1335  092E  3449               	retlw	0
  1336  092F  3400               
  1337                           	retlw	049h
  1338  0930  3449               	retlw	0
  1339  0931  3400               
  1340                           	retlw	031h
  1341  0932  3431               	retlw	0
  1342  0933  3400               
  1343                           	retlw	01h
  1344  0934  3401               	retlw	0
  1345  0935  3400               
  1346                           	retlw	01h
  1347  0936  3401               	retlw	0
  1348  0937  3400               
  1349                           	retlw	07Fh
  1350  0938  347F               	retlw	0
  1351  0939  3400               
  1352                           	retlw	01h
  1353  093A  3401               	retlw	0
  1354  093B  3400               
  1355                           	retlw	01h
  1356  093C  3401               	retlw	0
  1357  093D  3400               
  1358                           	retlw	03Fh
  1359  093E  343F               	retlw	0
  1360  093F  3400               
  1361                           	retlw	040h
  1362  0940  3440               	retlw	0
  1363  0941  3400               
  1364                           	retlw	040h
  1365  0942  3440               	retlw	0
  1366  0943  3400               
  1367                           	retlw	040h
  1368  0944  3440               	retlw	0
  1369  0945  3400               
  1370                           	retlw	03Fh
  1371  0946  343F               	retlw	0
  1372  0947  3400               
  1373                           	retlw	01Fh
  1374  0948  341F               	retlw	0
  1375  0949  3400               
  1376                           	retlw	020h
  1377  094A  3420               	retlw	0
  1378  094B  3400               
  1379                           	retlw	040h
  1380  094C  3440               	retlw	0
  1381  094D  3400               
  1382                           	retlw	020h
  1383  094E  3420               	retlw	0
  1384  094F  3400               
  1385                           	retlw	01Fh
  1386  0950  341F               	retlw	0
  1387  0951  3400               
  1388                           	retlw	07Fh
  1389  0952  347F               	retlw	0
  1390  0953  3400               
  1391                           	retlw	020h
  1392  0954  3420               	retlw	0
  1393  0955  3400               
  1394                           	retlw	018h
  1395  0956  3418               	retlw	0
  1396  0957  3400               
  1397                           	retlw	020h
  1398  0958  3420               	retlw	0
  1399  0959  3400               
  1400                           	retlw	07Fh
  1401  095A  347F               	retlw	0
  1402  095B  3400               
  1403                           	retlw	063h
  1404  095C  3463               	retlw	0
  1405  095D  3400               
  1406                           	retlw	014h
  1407  095E  3414               	retlw	0
  1408  095F  3400               
  1409                           	retlw	08h
  1410  0960  3408               	retlw	0
  1411  0961  3400               
  1412                           	retlw	014h
  1413  0962  3414               	retlw	0
  1414  0963  3400               
  1415                           	retlw	063h
  1416  0964  3463               	retlw	0
  1417  0965  3400               
  1418                           	retlw	03h
  1419  0966  3403               	retlw	0
  1420  0967  3400               
  1421                           	retlw	04h
  1422  0968  3404               	retlw	0
  1423  0969  3400               
  1424                           	retlw	078h
  1425  096A  3478               	retlw	0
  1426  096B  3400               
  1427                           	retlw	04h
  1428  096C  3404               	retlw	0
  1429  096D  3400               
  1430                           	retlw	03h
  1431  096E  3403               	retlw	0
  1432  096F  3400               
  1433                           	retlw	061h
  1434  0970  3461               	retlw	0
  1435  0971  3400               
  1436                           	retlw	051h
  1437  0972  3451               	retlw	0
  1438  0973  3400               
  1439                           	retlw	049h
  1440  0974  3449               	retlw	0
  1441  0975  3400               
  1442                           	retlw	045h
  1443  0976  3445               	retlw	0
  1444  0977  3400               
  1445                           	retlw	043h
  1446  0978  3443               	retlw	0
  1447  0979  3400               
  1448                           	retlw	low(0)
  1449  097A  3400               	retlw	high(0)
  1450  097B  3400               
  1451                           	retlw	low(0)
  1452  097C  3400               	retlw	high(0)
  1453  097D  3400               
  1454                           	retlw	low(0)
  1455  097E  3400               	retlw	high(0)
  1456  097F  3400               
  1457                           	retlw	low(0)
  1458  0980  3400               	retlw	high(0)
  1459  0981  3400               
  1460                           	retlw	low(0)
  1461  0982  3400               	retlw	high(0)
  1462  0983  3400               
  1463                           	global __end_of_font
  1464                           __end_of_font:
  1465  0984                     	global	_font
  1466                           	global	_PORTBbits
  1467                           _PORTBbits	set	0x6
  1468  0006                     	global	_INTCONbits
  1469                           _INTCONbits	set	0xB
  1470  000B                     	global	_PORTC
  1471                           _PORTC	set	0x7
  1472  0007                     	global	_PORTA
  1473                           _PORTA	set	0x5
  1474  0005                     	global	_SSPBUF
  1475                           _SSPBUF	set	0x13
  1476  0013                     	global	_PORTCbits
  1477                           _PORTCbits	set	0x7
  1478  0007                     	global	_SSPCON
  1479                           _SSPCON	set	0x14
  1480  0014                     	global	_IOCBbits
  1481                           _IOCBbits	set	0x96
  1482  0096                     	global	_TRISCbits
  1483                           _TRISCbits	set	0x87
  1484  0087                     	global	_TRISEbits
  1485                           _TRISEbits	set	0x89
  1486  0089                     	global	_TRISBbits
  1487                           _TRISBbits	set	0x86
  1488  0086                     	global	_TRISAbits
  1489                           _TRISAbits	set	0x85
  1490  0085                     	global	_OSCCON
  1491                           _OSCCON	set	0x8F
  1492  008F                     	global	_SSPSTATbits
  1493                           _SSPSTATbits	set	0x94
  1494  0094                     	global	_TRISC
  1495                           _TRISC	set	0x87
  1496  0087                     	global	_TRISD
  1497                           _TRISD	set	0x88
  1498  0088                     	global	_SSPSTAT
  1499                           _SSPSTAT	set	0x94
  1500  0094                     	global	_ANSELbits
  1501                           _ANSELbits	set	0x188
  1502  0188                     	global	_ANSELHbits
  1503                           _ANSELHbits	set	0x189
  1504  0189                     ; #config settings
  1505                           global __CFG_FOSC$INTRC_CLKOUT
  1506                           __CFG_FOSC$INTRC_CLKOUT equ 0x0
  1507  0000                     global __CFG_WDTE$OFF
  1508                           __CFG_WDTE$OFF equ 0x0
  1509  0000                     global __CFG_PWRTE$OFF
  1510                           __CFG_PWRTE$OFF equ 0x0
  1511  0000                     global __CFG_MCLRE$OFF
  1512                           __CFG_MCLRE$OFF equ 0x0
  1513  0000                     global __CFG_CP$OFF
  1514                           __CFG_CP$OFF equ 0x0
  1515  0000                     global __CFG_CPD$OFF
  1516                           __CFG_CPD$OFF equ 0x0
  1517  0000                     global __CFG_BOREN$ON
  1518                           __CFG_BOREN$ON equ 0x0
  1519  0000                     global __CFG_IESO$OFF
  1520                           __CFG_IESO$OFF equ 0x0
  1521  0000                     global __CFG_FCMEN$OFF
  1522                           __CFG_FCMEN$OFF equ 0x0
  1523  0000                     global __CFG_LVP$OFF
  1524                           __CFG_LVP$OFF equ 0x0
  1525  0000                     global __CFG_BOR4V$BOR21V
  1526                           __CFG_BOR4V$BOR21V equ 0x0
  1527  0000                     global __CFG_WRT$OFF
  1528                           __CFG_WRT$OFF equ 0x0
  1529  0000                     	file	"C:\Users\Niek\AppData\Local\Temp\s6k."
  1530                           	line	#
  1531                           psect cinit,class=CODE,delta=2
  1532                           global start_initialization
  1533                           start_initialization:
  1534  07FC                     
  1535                           global __initialization
  1536                           __initialization:
  1537  07FC                     psect cinit,class=CODE,delta=2,merge=1
  1538                           global end_of_initialization,__end_of__initialization
  1539                           
  1540                           ;End of C runtime variable initialization code
  1541                           
  1542                           end_of_initialization:
  1543  07FC                     __end_of__initialization:
  1544  07FC                     clrf status
  1545  07FC  0183               ljmp _main	;jump to C main() function
  1546  07FD  120A  118A  2EA4   psect	cstackCOMMON,class=COMMON,space=1,noexec
  1547                           global __pcstackCOMMON
  1548                           __pcstackCOMMON:
  1549  0070                     ?_config:	; 1 bytes @ 0x0
  1550  0070                     ??_config:	; 1 bytes @ 0x0
  1551  0070                     ?_spiWrite:	; 1 bytes @ 0x0
  1552  0070                     ??_spiWrite:	; 1 bytes @ 0x0
  1553  0070                     ?_write_volume:	; 1 bytes @ 0x0
  1554  0070                     ?_main:	; 1 bytes @ 0x0
  1555  0070                     ?_white_space:	; 1 bytes @ 0x0
  1556  0070                     	global	spiWrite@data
  1557                           spiWrite@data:	; 1 bytes @ 0x0
  1558  0070                     	ds	1
  1559  0070                     ??_white_space:	; 1 bytes @ 0x1
  1560  0071                     	ds	2
  1561  0071                     	global	white_space@aantal_spaces
  1562                           white_space@aantal_spaces:	; 1 bytes @ 0x3
  1563  0073                     	global	config@_selectedInput
  1564                           config@_selectedInput:	; 2 bytes @ 0x3
  1565  0073                     	ds	1
  1566  0073                     	global	white_space@kolom
  1567                           white_space@kolom:	; 2 bytes @ 0x4
  1568  0074                     	ds	1
  1569  0074                     	global	config@_lastA
  1570                           config@_lastA:	; 2 bytes @ 0x5
  1571  0075                     	ds	1
  1572  0075                     	global	white_space@rij
  1573                           white_space@rij:	; 2 bytes @ 0x6
  1574  0076                     	ds	1
  1575  0076                     	global	config@_lastB
  1576                           config@_lastB:	; 2 bytes @ 0x7
  1577  0077                     	ds	1
  1578  0077                     ??_write_volume:	; 1 bytes @ 0x8
  1579  0078                     	ds	1
  1580  0078                     	global	config@_inputUpdateRequired
  1581                           config@_inputUpdateRequired:	; 1 bytes @ 0x9
  1582  0079                     	ds	1
  1583  0079                     	global	config@data
  1584                           config@data:	; 1 bytes @ 0xA
  1585  007A                     	ds	1
  1586  007A                     	global	config@display
  1587                           config@display:	; 1 bytes @ 0xB
  1588  007B                     	ds	1
  1589  007B                     	global	main@volume
  1590                           main@volume:	; 1 bytes @ 0xC
  1591  007C                     	ds	1
  1592  007C                     psect	cstackBANK0,class=BANK0,space=1,noexec
  1593                           global __pcstackBANK0
  1594                           __pcstackBANK0:
  1595  0020                     	global	write_volume@volume
  1596                           write_volume@volume:	; 1 bytes @ 0x0
  1597  0020                     	ds	1
  1598  0020                     	global	write_volume@x
  1599                           write_volume@x:	; 2 bytes @ 0x1
  1600  0021                     	ds	2
  1601  0021                     	global	write_volume@x_194
  1602                           write_volume@x_194:	; 2 bytes @ 0x3
  1603  0023                     	ds	2
  1604  0023                     ??_main:	; 1 bytes @ 0x5
  1605  0025                     	ds	3
  1606  0025                     ;!
  1607                           ;!Data Sizes:
  1608                           ;!    Strings     0
  1609                           ;!    Constant    370
  1610                           ;!    Data        0
  1611                           ;!    BSS         0
  1612                           ;!    Persistent  0
  1613                           ;!    Stack       0
  1614                           ;!
  1615                           ;!Auto Spaces:
  1616                           ;!    Space          Size  Autos    Used
  1617                           ;!    COMMON           14     13      13
  1618                           ;!    BANK0            80      8       8
  1619                           ;!    BANK1            80      0       0
  1620                           ;!    BANK3            96      0       0
  1621                           ;!    BANK2            96      0       0
  1622                           
  1623                           ;!
  1624                           ;!Pointer List with Targets:
  1625                           ;!
  1626                           ;!    None.
  1627                           
  1628                           
  1629                           ;!
  1630                           ;!Critical Paths under _main in COMMON
  1631                           ;!
  1632                           ;!    _main->_config
  1633                           ;!    _write_volume->_white_space
  1634                           ;!    _white_space->_spiWrite
  1635                           ;!
  1636                           ;!Critical Paths under _main in BANK0
  1637                           ;!
  1638                           ;!    _main->_write_volume
  1639                           ;!
  1640                           ;!Critical Paths under _main in BANK1
  1641                           ;!
  1642                           ;!    None.
  1643                           ;!
  1644                           ;!Critical Paths under _main in BANK3
  1645                           ;!
  1646                           ;!    None.
  1647                           ;!
  1648                           ;!Critical Paths under _main in BANK2
  1649                           ;!
  1650                           ;!    None.
  1651                           
  1652 ;;
  1653 ;;Main: autosize = 0, tempsize = 3, incstack = 0, save=0
  1654 ;;
  1655                           
  1656                           ;!
  1657                           ;!Call Graph Tables:
  1658                           ;!
  1659                           ;! ---------------------------------------------------------------------------------
  1660                           ;! (Depth) Function   	        Calls       Base Space   Used Autos Params    Refs
  1661                           ;! ---------------------------------------------------------------------------------
  1662                           ;! (0) _main                                                 4     4      0     362
  1663                           ;!                                             12 COMMON     1     1      0
  1664                           ;!                                              5 BANK0      3     3      0
  1665                           ;!                             _config
  1666                           ;!                           _spiWrite
  1667                           ;!                       _write_volume
  1668                           ;! ---------------------------------------------------------------------------------
  1669                           ;! (1) _write_volume                                         7     7      0     338
  1670                           ;!                                              8 COMMON     2     2      0
  1671                           ;!                                              0 BANK0      5     5      0
  1672                           ;!                           _spiWrite
  1673                           ;!                        _white_space
  1674                           ;! ---------------------------------------------------------------------------------
  1675                           ;! (2) _white_space                                          7     7      0     136
  1676                           ;!                                              1 COMMON     7     7      0
  1677                           ;!                           _spiWrite
  1678                           ;! ---------------------------------------------------------------------------------
  1679                           ;! (3) _spiWrite                                             1     1      0      22
  1680                           ;!                                              0 COMMON     1     1      0
  1681                           ;! ---------------------------------------------------------------------------------
  1682                           ;! (1) _config                                              12    12      0       0
  1683                           ;!                                              0 COMMON    12    12      0
  1684                           ;! ---------------------------------------------------------------------------------
  1685                           ;! Estimated maximum stack depth 3
  1686                           ;! ---------------------------------------------------------------------------------
  1687                           ;!
  1688                           ;! Call Graph Graphs:
  1689                           ;!
  1690                           ;! _main (ROOT)
  1691                           ;!   _config
  1692                           ;!   _spiWrite
  1693                           ;!   _write_volume
  1694                           ;!     _spiWrite
  1695                           ;!     _white_space
  1696                           ;!       _spiWrite
  1697                           ;!
  1698                           
  1699                           ;! Address spaces:
  1700                           
  1701                           ;!Name               Size   Autos  Total    Cost      Usage
  1702                           ;!BITCOMMON            E      0       0       0        0.0%
  1703                           ;!EEDATA             100      0       0       0        0.0%
  1704                           ;!NULL                 0      0       0       0        0.0%
  1705                           ;!CODE                 0      0       0       0        0.0%
  1706                           ;!COMMON               E      D       D       1       92.9%
  1707                           ;!BITSFR0              0      0       0       1        0.0%
  1708                           ;!SFR0                 0      0       0       1        0.0%
  1709                           ;!BITSFR1              0      0       0       2        0.0%
  1710                           ;!SFR1                 0      0       0       2        0.0%
  1711                           ;!STACK                0      0       0       2        0.0%
  1712                           ;!ABS                  0      0       0       3        0.0%
  1713                           ;!BITBANK0            50      0       0       4        0.0%
  1714                           ;!BITSFR3              0      0       0       4        0.0%
  1715                           ;!SFR3                 0      0       0       4        0.0%
  1716                           ;!BANK0               50      8       8       5       10.0%
  1717                           ;!BITSFR2              0      0       0       5        0.0%
  1718                           ;!SFR2                 0      0       0       5        0.0%
  1719                           ;!BITBANK1            50      0       0       6        0.0%
  1720                           ;!BANK1               50      0       0       7        0.0%
  1721                           ;!BITBANK3            60      0       0       8        0.0%
  1722                           ;!BANK3               60      0       0       9        0.0%
  1723                           ;!BITBANK2            60      0       0      10        0.0%
  1724                           ;!BANK2               60      0       0      11        0.0%
  1725                           ;!DATA                 0      0       0      12        0.0%
  1726                           
  1727                           	global	_main
  1728                           
  1729 ;; *************** function _main *****************
  1730 ;; Defined at:
  1731 ;;		line 31 in file "main.c"
  1732 ;; Parameters:    Size  Location     Type
  1733 ;;		None
  1734 ;; Auto vars:     Size  Location     Type
  1735 ;;  volume          1   12[COMMON] unsigned char 
  1736 ;; Return value:  Size  Location     Type
  1737 ;;                  1    wreg      void 
  1738 ;; Registers used:
  1739 ;;		wreg, fsr0l, fsr0h, status,2, status,0, btemp+1, pclath, cstack
  1740 ;; Tracked objects:
  1741 ;;		On entry : B00/0
  1742 ;;		On exit  : 0/0
  1743 ;;		Unchanged: 0/0
  1744 ;; Data sizes:     COMMON   BANK0   BANK1   BANK3   BANK2
  1745 ;;      Params:         0       0       0       0       0
  1746 ;;      Locals:         1       0       0       0       0
  1747 ;;      Temps:          0       3       0       0       0
  1748 ;;      Totals:         1       3       0       0       0
  1749 ;;Total ram usage:        4 bytes
  1750 ;; Hardware stack levels required when called:    3
  1751 ;; This function calls:
  1752 ;;		_config
  1753 ;;		_spiWrite
  1754 ;;		_write_volume
  1755 ;; This function is called by:
  1756 ;;		Startup code after reset
  1757 ;; This function uses a non-reentrant model
  1758 ;;
  1759                           psect	maintext,global,class=CODE,delta=2,split=1,group=0
  1760                           	file	"main.c"
  1761                           	line	31
  1762                           global __pmaintext
  1763                           __pmaintext:	;psect for function _main
  1764  06A4                     psect	maintext
  1765                           	file	"main.c"
  1766                           	line	31
  1767                           	global	__size_of_main
  1768                           	__size_of_main	equ	__end_of_main-_main
  1769  0055                     	
  1770                           _main:	
  1771  06A4                     ;incstack = 0
  1772                           	opt	stack 5
  1773                           ; Regs used in _main: [wreg-fsr0h+status,2+status,0+btemp+1+pclath+cstack]
  1774                           	line	33
  1775                           	
  1776                           l859:	
  1777  06A4                     ;main.c: 33:     config();
  1778                           	fcall	_config
  1779  06A4  120A  118A  2658  120A  118A  	line	34
  1780                           	
  1781                           l861:	
  1782  06A9                     ;main.c: 34:     SSPCON = 0b00100000;
  1783                           	movlw	low(020h)
  1784  06A9  3020               	bcf	status, 5	;RP0=0, select bank0
  1785  06AA  1283               	bcf	status, 6	;RP1=0, select bank0
  1786  06AB  1303               	movwf	(20)	;volatile
  1787  06AC  0094               	line	35
  1788                           	
  1789                           l863:	
  1790  06AD                     ;main.c: 35:     SSPSTAT = 0b01000000;
  1791                           	movlw	low(040h)
  1792  06AD  3040               	bsf	status, 5	;RP0=1, select bank1
  1793  06AE  1683               	bcf	status, 6	;RP1=0, select bank1
  1794  06AF  1303               	movwf	(148)^080h	;volatile
  1795  06B0  0094               	line	38
  1796                           	
  1797                           l865:	
  1798  06B1                     ;main.c: 38:     TRISD = 0x00;
  1799                           	clrf	(136)^080h	;volatile
  1800  06B1  0188               	line	39
  1801                           	
  1802                           l867:	
  1803  06B2                     ;main.c: 39:     TRISC = 0x00;
  1804                           	clrf	(135)^080h	;volatile
  1805  06B2  0187               	line	82
  1806                           	
  1807                           l869:	
  1808  06B3                     ;main.c: 82:     PORTCbits.RC2 = 1;
  1809                           	bcf	status, 5	;RP0=0, select bank0
  1810  06B3  1283               	bcf	status, 6	;RP1=0, select bank0
  1811  06B4  1303               	bsf	(7),2	;volatile
  1812  06B5  1507               	line	83
  1813                           	
  1814                           l871:	
  1815  06B6                     ;main.c: 83:     PORTCbits.RC6 = 0;
  1816                           	bcf	(7),6	;volatile
  1817  06B6  1307               	line	84
  1818                           	
  1819                           l873:	
  1820  06B7                     ;main.c: 84:     PORTCbits.RC4 = 1;
  1821                           	bsf	(7),4	;volatile
  1822  06B7  1607               	line	85
  1823                           	
  1824                           l875:	
  1825  06B8                     ;main.c: 85:     PORTCbits.RC3 = 0;
  1826                           	bcf	(7),3	;volatile
  1827  06B8  1187               	line	86
  1828                           	
  1829                           l877:	
  1830  06B9                     ;main.c: 86:     PORTCbits.RC7 = 0;
  1831                           	bcf	(7),7	;volatile
  1832  06B9  1387               	line	89
  1833                           	
  1834                           l879:	
  1835  06BA                     ;main.c: 89:     PORTCbits.RC7 = 1;
  1836                           	bsf	(7),7	;volatile
  1837  06BA  1787               	line	90
  1838                           	
  1839                           l881:	
  1840  06BB                     ;main.c: 90:     PORTCbits.RC4 = 0;
  1841                           	bcf	(7),4	;volatile
  1842  06BB  1207               	line	91
  1843                           ;main.c: 91:     spiWrite(0b01001010);
  1844                           	movlw	low(04Ah)
  1845  06BC  304A               	fcall	_spiWrite
  1846  06BD  120A  118A  264A  120A  118A  	line	93
  1847                           	
  1848                           l883:	
  1849  06C2                     ;main.c: 93:     PORTCbits.RC4 = 1;
  1850                           	bcf	status, 5	;RP0=0, select bank0
  1851  06C2  1283               	bcf	status, 6	;RP1=0, select bank0
  1852  06C3  1303               	bsf	(7),4	;volatile
  1853  06C4  1607               	line	95
  1854                           	
  1855                           l885:	
  1856  06C5                     ;main.c: 95:     PORTCbits.RC7 = 1;
  1857                           	bsf	(7),7	;volatile
  1858  06C5  1787               	line	96
  1859                           	
  1860                           l887:	
  1861  06C6                     ;main.c: 96:     PORTCbits.RC4 = 0;
  1862                           	bcf	(7),4	;volatile
  1863  06C6  1207               	line	98
  1864                           ;main.c: 98:     spiWrite(0b10000001);
  1865                           	movlw	low(081h)
  1866  06C7  3081               	fcall	_spiWrite
  1867  06C8  120A  118A  264A  120A  118A  	line	99
  1868                           	
  1869                           l889:	
  1870  06CD                     ;main.c: 99:     PORTCbits.RC4 = 1;
  1871                           	bcf	status, 5	;RP0=0, select bank0
  1872  06CD  1283               	bcf	status, 6	;RP1=0, select bank0
  1873  06CE  1303               	bsf	(7),4	;volatile
  1874  06CF  1607               	line	101
  1875                           	
  1876                           l891:	
  1877  06D0                     ;main.c: 101:     PORTCbits.RC7 = 0;
  1878                           	bcf	(7),7	;volatile
  1879  06D0  1387               	line	102
  1880                           	
  1881                           l893:	
  1882  06D1                     ;main.c: 102:     PORTCbits.RC4 = 0;
  1883                           	bcf	(7),4	;volatile
  1884  06D1  1207               	line	106
  1885                           	
  1886                           l895:	
  1887  06D2                     ;main.c: 106:     char volume = 1;
  1888                           	clrf	(main@volume)
  1889  06D2  01FC               	incf	(main@volume),f
  1890  06D3  0AFC               	goto	l897
  1891  06D4  2ED5               	line	109
  1892                           ;main.c: 109:     while(1){
  1893                           	
  1894                           l23:	
  1895  06D5                     	line	110
  1896                           	
  1897                           l897:	
  1898  06D5                     ;main.c: 110:     PORTCbits.RC7 = 0;
  1899                           	bcf	(7),7	;volatile
  1900  06D5  1387               	line	111
  1901                           	
  1902                           l899:	
  1903  06D6                     ;main.c: 111:     PORTCbits.RC4 = 0;
  1904                           	bcf	(7),4	;volatile
  1905  06D6  1207               	line	112
  1906                           	
  1907                           l901:	
  1908  06D7                     ;main.c: 112:     write_volume(0);
  1909                           	movlw	low(0)
  1910  06D7  3000               	fcall	_write_volume
  1911  06D8  120A  118A  2752  120A  118A  	line	115
  1912                           	
  1913                           l903:	
  1914  06DD                     ;main.c: 115:     PORTCbits.RC4 = 1;
  1915                           	bcf	status, 5	;RP0=0, select bank0
  1916  06DD  1283               	bcf	status, 6	;RP1=0, select bank0
  1917  06DE  1303               	bsf	(7),4	;volatile
  1918  06DF  1607               	line	116
  1919                           	
  1920                           l905:	
  1921  06E0                     ;main.c: 116:     _delay((unsigned long)((2000)*(500000/4000.0)));
  1922                           	opt asmopt_push
  1923                           opt asmopt_off
  1924                           movlw  2
  1925  06E0  3002               	bcf	status, 5	;RP0=0, select bank0
  1926  06E1  1283               	bcf	status, 6	;RP1=0, select bank0
  1927  06E2  1303               movwf	((??_main+0)+0+2),f
  1928  06E3  00A7               movlw	69
  1929  06E4  3045               movwf	((??_main+0)+0+1),f
  1930  06E5  00A6               	movlw	169
  1931  06E6  30A9               movwf	((??_main+0)+0),f
  1932  06E7  00A5               	u217:
  1933  06E8                     decfsz	((??_main+0)+0),f
  1934  06E8  0BA5               	goto	u217
  1935  06E9  2EE8               	decfsz	((??_main+0)+0+1),f
  1936  06EA  0BA6               	goto	u217
  1937  06EB  2EE8               	decfsz	((??_main+0)+0+2),f
  1938  06EC  0BA7               	goto	u217
  1939  06ED  2EE8               opt asmopt_pop
  1940                           
  1941                           	line	118
  1942                           	
  1943                           l907:	
  1944  06EE                     ;main.c: 118:     volume++;
  1945                           	movlw	low(01h)
  1946  06EE  3001               	bcf	status, 5	;RP0=0, select bank0
  1947  06EF  1283               	bcf	status, 6	;RP1=0, select bank0
  1948  06F0  1303               	movwf	(??_main+0)+0
  1949  06F1  00A5               	movf	(??_main+0)+0,w
  1950  06F2  0825               	addwf	(main@volume),f
  1951  06F3  07FC               	goto	l897
  1952  06F4  2ED5               	line	121
  1953                           ;main.c: 121:     }
  1954                           	
  1955                           l24:	
  1956  06F5                     	goto	l897
  1957  06F5  2ED5               	
  1958                           l25:	
  1959  06F6                     	line	124
  1960                           ;main.c: 123:     return;
  1961                           	
  1962                           l26:	
  1963  06F6                     	global	start
  1964                           	ljmp	start
  1965  06F6  120A  118A  2800   	opt stack 0
  1966                           GLOBAL	__end_of_main
  1967                           	__end_of_main:
  1968  06F9                     	signat	_main,89
  1969                           	global	_write_volume
  1970                           
  1971 ;; *************** function _write_volume *****************
  1972 ;; Defined at:
  1973 ;;		line 17 in file "Display.c"
  1974 ;; Parameters:    Size  Location     Type
  1975 ;;  volume          1    wreg     unsigned char 
  1976 ;; Auto vars:     Size  Location     Type
  1977 ;;  volume          1    0[BANK0 ] unsigned char 
  1978 ;;  x               2    1[BANK0 ] int 
  1979 ;;  x               2    3[BANK0 ] int 
  1980 ;; Return value:  Size  Location     Type
  1981 ;;                  1    wreg      void 
  1982 ;; Registers used:
  1983 ;;		wreg, fsr0l, fsr0h, status,2, status,0, btemp+1, pclath, cstack
  1984 ;; Tracked objects:
  1985 ;;		On entry : 0/0
  1986 ;;		On exit  : 0/0
  1987 ;;		Unchanged: 0/0
  1988 ;; Data sizes:     COMMON   BANK0   BANK1   BANK3   BANK2
  1989 ;;      Params:         0       0       0       0       0
  1990 ;;      Locals:         0       5       0       0       0
  1991 ;;      Temps:          2       0       0       0       0
  1992 ;;      Totals:         2       5       0       0       0
  1993 ;;Total ram usage:        7 bytes
  1994 ;; Hardware stack levels used:    1
  1995 ;; Hardware stack levels required when called:    2
  1996 ;; This function calls:
  1997 ;;		_spiWrite
  1998 ;;		_white_space
  1999 ;; This function is called by:
  2000 ;;		_main
  2001 ;; This function uses a non-reentrant model
  2002 ;;
  2003                           psect	text1,local,class=CODE,delta=2,merge=1,group=0
  2004                           	file	"Display.c"
  2005                           	line	17
  2006                           global __ptext1
  2007                           __ptext1:	;psect for function _write_volume
  2008  0752                     psect	text1
  2009                           	file	"Display.c"
  2010                           	line	17
  2011                           	global	__size_of_write_volume
  2012                           	__size_of_write_volume	equ	__end_of_write_volume-_write_volume
  2013  00AA                     	
  2014                           _write_volume:	
  2015  0752                     ;incstack = 0
  2016                           	opt	stack 5
  2017                           ; Regs used in _write_volume: [wreg-fsr0h+status,2+status,0+btemp+1+pclath+cstack]
  2018                           ;write_volume@volume stored from wreg
  2019                           	bcf	status, 5	;RP0=0, select bank0
  2020  0752  1283               	bcf	status, 6	;RP1=0, select bank0
  2021  0753  1303               	movwf	(write_volume@volume)
  2022  0754  00A0               	line	19
  2023                           	
  2024                           l827:	
  2025  0755                     ;Display.c: 17: void write_volume(char volume);Display.c: 18: {;Display.c: 19:     if (v
                                 olume < 10)
  2026                           	movlw	low(0Ah)
  2027  0755  300A               	subwf	(write_volume@volume),w
  2028  0756  0220               	skipnc
  2029  0757  1803               	goto	u151
  2030  0758  2F5A               	goto	u150
  2031  0759  2F5B               u151:
  2032  075A                     	goto	l843
  2033  075A  2FA6               u150:
  2034  075B                     	line	21
  2035                           	
  2036                           l829:	
  2037  075B                     ;Display.c: 20:     {;Display.c: 21:         white_space(7);
  2038                           	movlw	low(07h)
  2039  075B  3007               	fcall	_white_space
  2040  075C  120A  118A  26F9  120A  118A  	line	23
  2041                           	
  2042                           l831:	
  2043  0761                     ;Display.c: 23:         for(int x=0; x < 5; x++)
  2044                           	bcf	status, 5	;RP0=0, select bank0
  2045  0761  1283               	bcf	status, 6	;RP1=0, select bank0
  2046  0762  1303               	clrf	(write_volume@x)
  2047  0763  01A1               	clrf	(write_volume@x+1)
  2048  0764  01A2               	
  2049                           l833:	
  2050  0765                     	movf	(write_volume@x+1),w
  2051  0765  0822               	xorlw	80h
  2052  0766  3A80               	movwf	btemp+1
  2053  0767  00FF               	movlw	(0)^80h
  2054  0768  3080               	subwf	btemp+1,w
  2055  0769  027F               	skipz
  2056  076A  1D03               	goto	u165
  2057  076B  2F6E               	movlw	05h
  2058  076C  3005               	subwf	(write_volume@x),w
  2059  076D  0221               u165:
  2060  076E                     
  2061                           	skipc
  2062  076E  1C03               	goto	u161
  2063  076F  2F71               	goto	u160
  2064  0770  2F72               u161:
  2065  0771                     	goto	l837
  2066  0771  2F74               u160:
  2067  0772                     	goto	l843
  2068  0772  2FA6               	
  2069                           l835:	
  2070  0773                     	goto	l843
  2071  0773  2FA6               	
  2072                           l48:	
  2073  0774                     	line	25
  2074                           	
  2075                           l837:	
  2076  0774                     ;Display.c: 24:             {;Display.c: 25:                 spiWrite(font[36][x]);
  2077                           	bcf	status, 5	;RP0=0, select bank0
  2078  0774  1283               	bcf	status, 6	;RP1=0, select bank0
  2079  0775  1303               	movf	(write_volume@x+1),w
  2080  0776  0822               	movwf	(??_write_volume+0)+0+1
  2081  0777  00F9               	movf	(write_volume@x),w
  2082  0778  0821               	movwf	(??_write_volume+0)+0
  2083  0779  00F8               	clrc
  2084  077A  1003               	rlf	(??_write_volume+0)+0,f
  2085  077B  0DF8               	rlf	(??_write_volume+0)+1,f
  2086  077C  0DF9               	movlw	high(((_font)|8000h)+0168h)
  2087  077D  3089               	addwf	1+(??_write_volume+0)+0,w
  2088  077E  0779               	movwf	btemp+1
  2089  077F  00FF               	movlw	low(((_font)|8000h)+0168h)
  2090  0780  307A               	addwf	0+(??_write_volume+0)+0,w
  2091  0781  0778               	movwf	fsr0
  2092  0782  0084               	skipnc
  2093  0783  1803               	incf	btemp+1,f
  2094  0784  0AFF               	fcall	stringtab
  2095  0785  120A  158A  2000  120A  118A  	fcall	_spiWrite
  2096  078A  120A  118A  264A  120A  118A  	line	26
  2097                           	
  2098                           l839:	
  2099  078F                     ;Display.c: 26:             }
  2100                           	movlw	01h
  2101  078F  3001               	bcf	status, 5	;RP0=0, select bank0
  2102  0790  1283               	bcf	status, 6	;RP1=0, select bank0
  2103  0791  1303               	addwf	(write_volume@x),f
  2104  0792  07A1               	skipnc
  2105  0793  1803               	incf	(write_volume@x+1),f
  2106  0794  0AA2               	movlw	0
  2107  0795  3000               	addwf	(write_volume@x+1),f
  2108  0796  07A2               	
  2109                           l841:	
  2110  0797                     	movf	(write_volume@x+1),w
  2111  0797  0822               	xorlw	80h
  2112  0798  3A80               	movwf	btemp+1
  2113  0799  00FF               	movlw	(0)^80h
  2114  079A  3080               	subwf	btemp+1,w
  2115  079B  027F               	skipz
  2116  079C  1D03               	goto	u175
  2117  079D  2FA0               	movlw	05h
  2118  079E  3005               	subwf	(write_volume@x),w
  2119  079F  0221               u175:
  2120  07A0                     
  2121                           	skipc
  2122  07A0  1C03               	goto	u171
  2123  07A1  2FA3               	goto	u170
  2124  07A2  2FA4               u171:
  2125  07A3                     	goto	l837
  2126  07A3  2F74               u170:
  2127  07A4                     	goto	l843
  2128  07A4  2FA6               	
  2129                           l49:	
  2130  07A5                     	goto	l843
  2131  07A5  2FA6               	line	29
  2132                           ;Display.c: 29:     }
  2133                           	
  2134                           l47:	
  2135  07A6                     	line	31
  2136                           	
  2137                           l843:	
  2138  07A6                     ;Display.c: 31:     if (volume >= 10)
  2139                           	movlw	low(0Ah)
  2140  07A6  300A               	bcf	status, 5	;RP0=0, select bank0
  2141  07A7  1283               	bcf	status, 6	;RP1=0, select bank0
  2142  07A8  1303               	subwf	(write_volume@volume),w
  2143  07A9  0220               	skipc
  2144  07AA  1C03               	goto	u181
  2145  07AB  2FAD               	goto	u180
  2146  07AC  2FAE               u181:
  2147  07AD                     	goto	l847
  2148  07AD  2FB5               u180:
  2149  07AE                     	line	33
  2150                           	
  2151                           l845:	
  2152  07AE                     ;Display.c: 33:         white_space(6);
  2153                           	movlw	low(06h)
  2154  07AE  3006               	fcall	_white_space
  2155  07AF  120A  118A  26F9  120A  118A  	goto	l847
  2156  07B4  2FB5               	
  2157                           l50:	
  2158  07B5                     	line	35
  2159                           	
  2160                           l847:	
  2161  07B5                     ;Display.c: 35:             for(int x=0; x < 5; x++)
  2162                           	bcf	status, 5	;RP0=0, select bank0
  2163  07B5  1283               	bcf	status, 6	;RP1=0, select bank0
  2164  07B6  1303               	clrf	(write_volume@x_194)
  2165  07B7  01A3               	clrf	(write_volume@x_194+1)
  2166  07B8  01A4               	
  2167                           l849:	
  2168  07B9                     	movf	(write_volume@x_194+1),w
  2169  07B9  0824               	xorlw	80h
  2170  07BA  3A80               	movwf	btemp+1
  2171  07BB  00FF               	movlw	(0)^80h
  2172  07BC  3080               	subwf	btemp+1,w
  2173  07BD  027F               	skipz
  2174  07BE  1D03               	goto	u195
  2175  07BF  2FC2               	movlw	05h
  2176  07C0  3005               	subwf	(write_volume@x_194),w
  2177  07C1  0223               u195:
  2178  07C2                     
  2179                           	skipc
  2180  07C2  1C03               	goto	u191
  2181  07C3  2FC5               	goto	u190
  2182  07C4  2FC6               u191:
  2183  07C5                     	goto	l853
  2184  07C5  2FC8               u190:
  2185  07C6                     	goto	l52
  2186  07C6  2FF8               	
  2187                           l851:	
  2188  07C7                     	goto	l52
  2189  07C7  2FF8               	
  2190                           l51:	
  2191  07C8                     	line	37
  2192                           	
  2193                           l853:	
  2194  07C8                     ;Display.c: 36:             {;Display.c: 37:                 spiWrite(font[1][x]);
  2195                           	bcf	status, 5	;RP0=0, select bank0
  2196  07C8  1283               	bcf	status, 6	;RP1=0, select bank0
  2197  07C9  1303               	movf	(write_volume@x_194+1),w
  2198  07CA  0824               	movwf	(??_write_volume+0)+0+1
  2199  07CB  00F9               	movf	(write_volume@x_194),w
  2200  07CC  0823               	movwf	(??_write_volume+0)+0
  2201  07CD  00F8               	clrc
  2202  07CE  1003               	rlf	(??_write_volume+0)+0,f
  2203  07CF  0DF8               	rlf	(??_write_volume+0)+1,f
  2204  07D0  0DF9               	movlw	high(((_font)|8000h)+0Ah)
  2205  07D1  3088               	addwf	1+(??_write_volume+0)+0,w
  2206  07D2  0779               	movwf	btemp+1
  2207  07D3  00FF               	movlw	low(((_font)|8000h)+0Ah)
  2208  07D4  301C               	addwf	0+(??_write_volume+0)+0,w
  2209  07D5  0778               	movwf	fsr0
  2210  07D6  0084               	skipnc
  2211  07D7  1803               	incf	btemp+1,f
  2212  07D8  0AFF               	fcall	stringtab
  2213  07D9  120A  158A  2000  120A  118A  	fcall	_spiWrite
  2214  07DE  120A  118A  264A  120A  118A  	line	38
  2215                           	
  2216                           l855:	
  2217  07E3                     ;Display.c: 38:             }
  2218                           	movlw	01h
  2219  07E3  3001               	bcf	status, 5	;RP0=0, select bank0
  2220  07E4  1283               	bcf	status, 6	;RP1=0, select bank0
  2221  07E5  1303               	addwf	(write_volume@x_194),f
  2222  07E6  07A3               	skipnc
  2223  07E7  1803               	incf	(write_volume@x_194+1),f
  2224  07E8  0AA4               	movlw	0
  2225  07E9  3000               	addwf	(write_volume@x_194+1),f
  2226  07EA  07A4               	
  2227                           l857:	
  2228  07EB                     	movf	(write_volume@x_194+1),w
  2229  07EB  0824               	xorlw	80h
  2230  07EC  3A80               	movwf	btemp+1
  2231  07ED  00FF               	movlw	(0)^80h
  2232  07EE  3080               	subwf	btemp+1,w
  2233  07EF  027F               	skipz
  2234  07F0  1D03               	goto	u205
  2235  07F1  2FF4               	movlw	05h
  2236  07F2  3005               	subwf	(write_volume@x_194),w
  2237  07F3  0223               u205:
  2238  07F4                     
  2239                           	skipc
  2240  07F4  1C03               	goto	u201
  2241  07F5  2FF7               	goto	u200
  2242  07F6  2FF8               u201:
  2243  07F7                     	goto	l853
  2244  07F7  2FC8               u200:
  2245  07F8                     	
  2246                           l52:	
  2247  07F8                     	line	40
  2248                           ;Display.c: 40:     PORTCbits.RC4 = 1;
  2249                           	bcf	status, 5	;RP0=0, select bank0
  2250  07F8  1283               	bcf	status, 6	;RP1=0, select bank0
  2251  07F9  1303               	bsf	(7),4	;volatile
  2252  07FA  1607               	line	41
  2253                           	
  2254                           l53:	
  2255  07FB                     	return
  2256  07FB  0008               	opt stack 0
  2257                           GLOBAL	__end_of_write_volume
  2258                           	__end_of_write_volume:
  2259  07FC                     	signat	_write_volume,4217
  2260                           	global	_white_space
  2261                           
  2262 ;; *************** function _white_space *****************
  2263 ;; Defined at:
  2264 ;;		line 6 in file "Display.c"
  2265 ;; Parameters:    Size  Location     Type
  2266 ;;  aantal_space    1    wreg     unsigned char 
  2267 ;; Auto vars:     Size  Location     Type
  2268 ;;  aantal_space    1    3[COMMON] unsigned char 
  2269 ;;  rij             2    6[COMMON] int 
  2270 ;;  kolom           2    4[COMMON] int 
  2271 ;; Return value:  Size  Location     Type
  2272 ;;                  1    wreg      void 
  2273 ;; Registers used:
  2274 ;;		wreg, fsr0l, fsr0h, status,2, status,0, btemp+1, pclath, cstack
  2275 ;; Tracked objects:
  2276 ;;		On entry : 0/0
  2277 ;;		On exit  : 0/0
  2278 ;;		Unchanged: 0/0
  2279 ;; Data sizes:     COMMON   BANK0   BANK1   BANK3   BANK2
  2280 ;;      Params:         0       0       0       0       0
  2281 ;;      Locals:         5       0       0       0       0
  2282 ;;      Temps:          2       0       0       0       0
  2283 ;;      Totals:         7       0       0       0       0
  2284 ;;Total ram usage:        7 bytes
  2285 ;; Hardware stack levels used:    1
  2286 ;; Hardware stack levels required when called:    1
  2287 ;; This function calls:
  2288 ;;		_spiWrite
  2289 ;; This function is called by:
  2290 ;;		_write_volume
  2291 ;; This function uses a non-reentrant model
  2292 ;;
  2293                           psect	text2,local,class=CODE,delta=2,merge=1,group=0
  2294                           	line	6
  2295                           global __ptext2
  2296                           __ptext2:	;psect for function _white_space
  2297  06F9                     psect	text2
  2298                           	file	"Display.c"
  2299                           	line	6
  2300                           	global	__size_of_white_space
  2301                           	__size_of_white_space	equ	__end_of_white_space-_white_space
  2302  0059                     	
  2303                           _white_space:	
  2304  06F9                     ;incstack = 0
  2305                           	opt	stack 5
  2306                           ; Regs used in _white_space: [wreg-fsr0h+status,2+status,0+btemp+1+pclath+cstack]
  2307                           ;white_space@aantal_spaces stored from wreg
  2308                           	movwf	(white_space@aantal_spaces)
  2309  06F9  00F3               	line	8
  2310                           	
  2311                           l811:	
  2312  06FA                     ;Display.c: 8:     for(int kolom = 0; kolom < aantal_spaces; kolom++)
  2313                           	clrf	(white_space@kolom)
  2314  06FA  01F4               	clrf	(white_space@kolom+1)
  2315  06FB  01F5               	goto	l39
  2316  06FC  2F43               	
  2317                           l40:	
  2318  06FD                     	line	10
  2319                           	
  2320                           l813:	
  2321  06FD                     ;Display.c: 9:     {;Display.c: 10:         for(int rij = 0; rij < 5; rij++)
  2322                           	clrf	(white_space@rij)
  2323  06FD  01F6               	clrf	(white_space@rij+1)
  2324  06FE  01F7               	
  2325                           l815:	
  2326  06FF                     	movf	(white_space@rij+1),w
  2327  06FF  0877               	xorlw	80h
  2328  0700  3A80               	movwf	btemp+1
  2329  0701  00FF               	movlw	(0)^80h
  2330  0702  3080               	subwf	btemp+1,w
  2331  0703  027F               	skipz
  2332  0704  1D03               	goto	u125
  2333  0705  2F08               	movlw	05h
  2334  0706  3005               	subwf	(white_space@rij),w
  2335  0707  0276               u125:
  2336  0708                     
  2337                           	skipc
  2338  0708  1C03               	goto	u121
  2339  0709  2F0B               	goto	u120
  2340  070A  2F0C               u121:
  2341  070B                     	goto	l819
  2342  070B  2F0E               u120:
  2343  070C                     	goto	l825
  2344  070C  2F3D               	
  2345                           l817:	
  2346  070D                     	goto	l825
  2347  070D  2F3D               	
  2348                           l41:	
  2349  070E                     	line	12
  2350                           	
  2351                           l819:	
  2352  070E                     ;Display.c: 11:         {;Display.c: 12:             spiWrite(font[0][rij]);
  2353                           	movf	(white_space@rij+1),w
  2354  070E  0877               	movwf	(??_white_space+0)+0+1
  2355  070F  00F2               	movf	(white_space@rij),w
  2356  0710  0876               	movwf	(??_white_space+0)+0
  2357  0711  00F1               	clrc
  2358  0712  1003               	rlf	(??_white_space+0)+0,f
  2359  0713  0DF1               	rlf	(??_white_space+0)+1,f
  2360  0714  0DF2               	movlw	high(((_font)|8000h))
  2361  0715  3088               	addwf	1+(??_white_space+0)+0,w
  2362  0716  0772               	bcf	status, 5	;RP0=0, select bank0
  2363  0717  1283               	bcf	status, 6	;RP1=0, select bank0
  2364  0718  1303               	movwf	btemp+1
  2365  0719  00FF               	movlw	low(((_font)|8000h))
  2366  071A  3012               	addwf	0+(??_white_space+0)+0,w
  2367  071B  0771               	movwf	fsr0
  2368  071C  0084               	skipnc
  2369  071D  1803               	incf	btemp+1,f
  2370  071E  0AFF               	fcall	stringtab
  2371  071F  120A  158A  2000  120A  118A  	fcall	_spiWrite
  2372  0724  120A  118A  264A  120A  118A  	line	13
  2373                           	
  2374                           l821:	
  2375  0729                     ;Display.c: 13:         }
  2376                           	movlw	01h
  2377  0729  3001               	addwf	(white_space@rij),f
  2378  072A  07F6               	skipnc
  2379  072B  1803               	incf	(white_space@rij+1),f
  2380  072C  0AF7               	movlw	0
  2381  072D  3000               	addwf	(white_space@rij+1),f
  2382  072E  07F7               	
  2383                           l823:	
  2384  072F                     	movf	(white_space@rij+1),w
  2385  072F  0877               	xorlw	80h
  2386  0730  3A80               	movwf	btemp+1
  2387  0731  00FF               	movlw	(0)^80h
  2388  0732  3080               	subwf	btemp+1,w
  2389  0733  027F               	skipz
  2390  0734  1D03               	goto	u135
  2391  0735  2F38               	movlw	05h
  2392  0736  3005               	subwf	(white_space@rij),w
  2393  0737  0276               u135:
  2394  0738                     
  2395                           	skipc
  2396  0738  1C03               	goto	u131
  2397  0739  2F3B               	goto	u130
  2398  073A  2F3C               u131:
  2399  073B                     	goto	l819
  2400  073B  2F0E               u130:
  2401  073C                     	goto	l825
  2402  073C  2F3D               	
  2403                           l42:	
  2404  073D                     	line	14
  2405                           	
  2406                           l825:	
  2407  073D                     ;Display.c: 14:     }
  2408                           	movlw	01h
  2409  073D  3001               	addwf	(white_space@kolom),f
  2410  073E  07F4               	skipnc
  2411  073F  1803               	incf	(white_space@kolom+1),f
  2412  0740  0AF5               	movlw	0
  2413  0741  3000               	addwf	(white_space@kolom+1),f
  2414  0742  07F5               	
  2415                           l39:	
  2416  0743                     	movf	(white_space@kolom+1),w
  2417  0743  0875               	xorlw	80h
  2418  0744  3A80               	movwf	(??_white_space+0)+0
  2419  0745  00F1               	movlw	80h
  2420  0746  3080               	subwf	(??_white_space+0)+0,w
  2421  0747  0271               	skipz
  2422  0748  1D03               	goto	u145
  2423  0749  2F4C               	movf	(white_space@aantal_spaces),w
  2424  074A  0873               	subwf	(white_space@kolom),w
  2425  074B  0274               u145:
  2426  074C                     
  2427                           	skipc
  2428  074C  1C03               	goto	u141
  2429  074D  2F4F               	goto	u140
  2430  074E  2F50               u141:
  2431  074F                     	goto	l813
  2432  074F  2EFD               u140:
  2433  0750                     	goto	l44
  2434  0750  2F51               	
  2435                           l43:	
  2436  0751                     	line	15
  2437                           	
  2438                           l44:	
  2439  0751                     	return
  2440  0751  0008               	opt stack 0
  2441                           GLOBAL	__end_of_white_space
  2442                           	__end_of_white_space:
  2443  0752                     	signat	_white_space,4217
  2444                           	global	_spiWrite
  2445                           
  2446 ;; *************** function _spiWrite *****************
  2447 ;; Defined at:
  2448 ;;		line 43 in file "Display.c"
  2449 ;; Parameters:    Size  Location     Type
  2450 ;;  data            1    wreg     unsigned char 
  2451 ;; Auto vars:     Size  Location     Type
  2452 ;;  data            1    0[COMMON] unsigned char 
  2453 ;; Return value:  Size  Location     Type
  2454 ;;                  1    wreg      void 
  2455 ;; Registers used:
  2456 ;;		wreg
  2457 ;; Tracked objects:
  2458 ;;		On entry : 0/0
  2459 ;;		On exit  : 0/0
  2460 ;;		Unchanged: 0/0
  2461 ;; Data sizes:     COMMON   BANK0   BANK1   BANK3   BANK2
  2462 ;;      Params:         0       0       0       0       0
  2463 ;;      Locals:         1       0       0       0       0
  2464 ;;      Temps:          0       0       0       0       0
  2465 ;;      Totals:         1       0       0       0       0
  2466 ;;Total ram usage:        1 bytes
  2467 ;; Hardware stack levels used:    1
  2468 ;; This function calls:
  2469 ;;		Nothing
  2470 ;; This function is called by:
  2471 ;;		_main
  2472 ;;		_white_space
  2473 ;;		_write_volume
  2474 ;; This function uses a non-reentrant model
  2475 ;;
  2476                           psect	text3,local,class=CODE,delta=2,merge=1,group=0
  2477                           	line	43
  2478                           global __ptext3
  2479                           __ptext3:	;psect for function _spiWrite
  2480  064A                     psect	text3
  2481                           	file	"Display.c"
  2482                           	line	43
  2483                           	global	__size_of_spiWrite
  2484                           	__size_of_spiWrite	equ	__end_of_spiWrite-_spiWrite
  2485  000E                     	
  2486                           _spiWrite:	
  2487  064A                     ;incstack = 0
  2488                           	opt	stack 5
  2489                           ; Regs used in _spiWrite: [wreg]
  2490                           ;spiWrite@data stored from wreg
  2491                           	movwf	(spiWrite@data)
  2492  064A  00F0               	line	45
  2493                           	
  2494                           l809:	
  2495  064B                     ;Display.c: 43: void spiWrite(char data);Display.c: 44: {;Display.c: 45:     SSPBUF = da
                                 ta;
  2496                           	movf	(spiWrite@data),w
  2497  064B  0870               	bcf	status, 5	;RP0=0, select bank0
  2498  064C  1283               	bcf	status, 6	;RP1=0, select bank0
  2499  064D  1303               	movwf	(19)	;volatile
  2500  064E  0093               	line	47
  2501                           ;Display.c: 47:     while(!SSPSTATbits.BF)
  2502                           	goto	l56
  2503  064F  2E50               	
  2504                           l57:	
  2505  0650                     	line	50
  2506                           ;Display.c: 48:     {;Display.c: 50:     }
  2507                           	
  2508                           l56:	
  2509  0650                     	line	47
  2510                           ;Display.c: 47:     while(!SSPSTATbits.BF)
  2511                           	bsf	status, 5	;RP0=1, select bank1
  2512  0650  1683               	bcf	status, 6	;RP1=0, select bank1
  2513  0651  1303               	btfss	(148)^080h,0	;volatile
  2514  0652  1C14               	goto	u111
  2515  0653  2E55               	goto	u110
  2516  0654  2E56               u111:
  2517  0655                     	goto	l56
  2518  0655  2E50               u110:
  2519  0656                     	goto	l59
  2520  0656  2E57               	
  2521                           l58:	
  2522  0657                     	line	53
  2523                           	
  2524                           l59:	
  2525  0657                     	return
  2526  0657  0008               	opt stack 0
  2527                           GLOBAL	__end_of_spiWrite
  2528                           	__end_of_spiWrite:
  2529  0658                     	signat	_spiWrite,4217
  2530                           	global	_config
  2531                           
  2532 ;; *************** function _config *****************
  2533 ;; Defined at:
  2534 ;;		line 5 in file "Config.c"
  2535 ;; Parameters:    Size  Location     Type
  2536 ;;		None
  2537 ;; Auto vars:     Size  Location     Type
  2538 ;;  _lastB          2    7[COMMON] unsigned short 
  2539 ;;  _lastA          2    5[COMMON] unsigned short 
  2540 ;;  _selectedInp    2    3[COMMON] unsigned short 
  2541 ;;  display         1   11[COMMON] unsigned char 
  2542 ;;  data            1   10[COMMON] unsigned char 
  2543 ;;  _inputUpdate    1    9[COMMON] unsigned char 
  2544 ;; Return value:  Size  Location     Type
  2545 ;;                  1    wreg      void 
  2546 ;; Registers used:
  2547 ;;		wreg, status,2, status,0
  2548 ;; Tracked objects:
  2549 ;;		On entry : 0/0
  2550 ;;		On exit  : 0/0
  2551 ;;		Unchanged: 0/0
  2552 ;; Data sizes:     COMMON   BANK0   BANK1   BANK3   BANK2
  2553 ;;      Params:         0       0       0       0       0
  2554 ;;      Locals:         9       0       0       0       0
  2555 ;;      Temps:          3       0       0       0       0
  2556 ;;      Totals:        12       0       0       0       0
  2557 ;;Total ram usage:       12 bytes
  2558 ;; Hardware stack levels used:    1
  2559 ;; This function calls:
  2560 ;;		Nothing
  2561 ;; This function is called by:
  2562 ;;		_main
  2563 ;; This function uses a non-reentrant model
  2564 ;;
  2565                           psect	text4,local,class=CODE,delta=2,merge=1,group=0
  2566                           	file	"Config.c"
  2567                           	line	5
  2568                           global __ptext4
  2569                           __ptext4:	;psect for function _config
  2570  0658                     psect	text4
  2571                           	file	"Config.c"
  2572                           	line	5
  2573                           	global	__size_of_config
  2574                           	__size_of_config	equ	__end_of_config-_config
  2575  004C                     	
  2576                           _config:	
  2577  0658                     ;incstack = 0
  2578                           	opt	stack 7
  2579                           ; Regs used in _config: [wreg+status,2+status,0]
  2580                           	line	11
  2581                           	
  2582                           l677:	
  2583  0658                     ;Config.c: 7:         char _inputUpdateRequired;;Config.c: 8:         unsigned short _se
                                 lectedInput;;Config.c: 9:         unsigned short _lastA, _lastB;;Config.c: 11:         u
                                 nsigned char data = 0xFF;
  2584                           	movlw	low(0FFh)
  2585  0658  30FF               	movwf	(??_config+0)+0
  2586  0659  00F0               	movf	(??_config+0)+0,w
  2587  065A  0870               	movwf	(config@data)
  2588  065B  00FA               	line	12
  2589                           	
  2590                           l679:	
  2591  065C                     ;Config.c: 12:         char display = 1;
  2592                           	clrf	(config@display)
  2593  065C  01FB               	incf	(config@display),f
  2594  065D  0AFB               	line	18
  2595                           ;Config.c: 18:     OSCCON = 0b00111000;
  2596                           	movlw	low(038h)
  2597  065E  3038               	bsf	status, 5	;RP0=1, select bank1
  2598  065F  1683               	bcf	status, 6	;RP1=0, select bank1
  2599  0660  1303               	movwf	(143)^080h	;volatile
  2600  0661  008F               	line	25
  2601                           	
  2602                           l681:	
  2603  0662                     ;Config.c: 25:     TRISAbits.TRISA0 = 0;
  2604                           	bcf	(133)^080h,0	;volatile
  2605  0662  1005               	line	26
  2606                           	
  2607                           l683:	
  2608  0663                     ;Config.c: 26:     TRISAbits.TRISA1 = 0;
  2609                           	bcf	(133)^080h,1	;volatile
  2610  0663  1085               	line	27
  2611                           	
  2612                           l685:	
  2613  0664                     ;Config.c: 27:     TRISAbits.TRISA2 = 0;
  2614                           	bcf	(133)^080h,2	;volatile
  2615  0664  1105               	line	28
  2616                           	
  2617                           l687:	
  2618  0665                     ;Config.c: 28:     TRISAbits.TRISA3 = 0;
  2619                           	bcf	(133)^080h,3	;volatile
  2620  0665  1185               	line	30
  2621                           ;Config.c: 30:     PORTA = 0x0F;
  2622                           	movlw	low(0Fh)
  2623  0666  300F               	bcf	status, 5	;RP0=0, select bank0
  2624  0667  1283               	bcf	status, 6	;RP1=0, select bank0
  2625  0668  1303               	movwf	(5)	;volatile
  2626  0669  0085               	line	37
  2627                           	
  2628                           l689:	
  2629  066A                     ;Config.c: 37:     TRISBbits.TRISB4 = 1;
  2630                           	bsf	status, 5	;RP0=1, select bank1
  2631  066A  1683               	bcf	status, 6	;RP1=0, select bank1
  2632  066B  1303               	bsf	(134)^080h,4	;volatile
  2633  066C  1606               	line	38
  2634                           	
  2635                           l691:	
  2636  066D                     ;Config.c: 38:     TRISBbits.TRISB5 = 1;
  2637                           	bsf	(134)^080h,5	;volatile
  2638  066D  1686               	line	40
  2639                           	
  2640                           l693:	
  2641  066E                     ;Config.c: 40:     ANSELHbits.ANS11 = 0;
  2642                           	bsf	status, 5	;RP0=1, select bank3
  2643  066E  1683               	bsf	status, 6	;RP1=1, select bank3
  2644  066F  1703               	bcf	(393)^0180h,3	;volatile
  2645  0670  1189               	line	41
  2646                           	
  2647                           l695:	
  2648  0671                     ;Config.c: 41:     ANSELHbits.ANS13 = 0;
  2649                           	bcf	(393)^0180h,5	;volatile
  2650  0671  1289               	line	47
  2651                           	
  2652                           l697:	
  2653  0672                     ;Config.c: 47:     TRISEbits.TRISE0 = 1;
  2654                           	bsf	status, 5	;RP0=1, select bank1
  2655  0672  1683               	bcf	status, 6	;RP1=0, select bank1
  2656  0673  1303               	bsf	(137)^080h,0	;volatile
  2657  0674  1409               	line	48
  2658                           	
  2659                           l699:	
  2660  0675                     ;Config.c: 48:     ANSELbits.ANS5 = 1;
  2661                           	bsf	status, 5	;RP0=1, select bank3
  2662  0675  1683               	bsf	status, 6	;RP1=1, select bank3
  2663  0676  1703               	bsf	(392)^0180h,5	;volatile
  2664  0677  1688               	line	53
  2665                           	
  2666                           l701:	
  2667  0678                     ;Config.c: 53:     TRISBbits.TRISB0 = 1;
  2668                           	bsf	status, 5	;RP0=1, select bank1
  2669  0678  1683               	bcf	status, 6	;RP1=0, select bank1
  2670  0679  1303               	bsf	(134)^080h,0	;volatile
  2671  067A  1406               	line	54
  2672                           	
  2673                           l703:	
  2674  067B                     ;Config.c: 54:     ANSELHbits.ANS11 = 0;
  2675                           	bsf	status, 5	;RP0=1, select bank3
  2676  067B  1683               	bsf	status, 6	;RP1=1, select bank3
  2677  067C  1703               	bcf	(393)^0180h,3	;volatile
  2678  067D  1189               	line	60
  2679                           	
  2680                           l705:	
  2681  067E                     ;Config.c: 60:     TRISCbits.TRISC0 = 0;
  2682                           	bsf	status, 5	;RP0=1, select bank1
  2683  067E  1683               	bcf	status, 6	;RP1=0, select bank1
  2684  067F  1303               	bcf	(135)^080h,0	;volatile
  2685  0680  1007               	line	61
  2686                           	
  2687                           l707:	
  2688  0681                     ;Config.c: 61:     TRISCbits.TRISC1 = 0;
  2689                           	bcf	(135)^080h,1	;volatile
  2690  0681  1087               	line	63
  2691                           	
  2692                           l709:	
  2693  0682                     ;Config.c: 63:     PORTC = 0x00;
  2694                           	bcf	status, 5	;RP0=0, select bank0
  2695  0682  1283               	bcf	status, 6	;RP1=0, select bank0
  2696  0683  1303               	clrf	(7)	;volatile
  2697  0684  0187               	line	78
  2698                           	
  2699                           l711:	
  2700  0685                     ;Config.c: 78:     INTCONbits.RBIE = 1;
  2701                           	bsf	(11),3	;volatile
  2702  0685  158B               	line	80
  2703                           	
  2704                           l713:	
  2705  0686                     ;Config.c: 80:     IOCBbits.IOCB4 = 1;
  2706                           	bsf	status, 5	;RP0=1, select bank1
  2707  0686  1683               	bcf	status, 6	;RP1=0, select bank1
  2708  0687  1303               	bsf	(150)^080h,4	;volatile
  2709  0688  1616               	line	81
  2710                           	
  2711                           l715:	
  2712  0689                     ;Config.c: 81:     IOCBbits.IOCB5 = 1;
  2713                           	bsf	(150)^080h,5	;volatile
  2714  0689  1696               	line	83
  2715                           	
  2716                           l717:	
  2717  068A                     ;Config.c: 83:     INTCONbits.GIE = 1;
  2718                           	bsf	(11),7	;volatile
  2719  068A  178B               	line	91
  2720                           	
  2721                           l719:	
  2722  068B                     ;Config.c: 91:     _inputUpdateRequired = 1;
  2723                           	clrf	(config@_inputUpdateRequired)
  2724  068B  01F9               	incf	(config@_inputUpdateRequired),f
  2725  068C  0AF9               	line	92
  2726                           	
  2727                           l721:	
  2728  068D                     ;Config.c: 92:     _selectedInput = 0;
  2729                           	clrf	(config@_selectedInput)
  2730  068D  01F3               	clrf	(config@_selectedInput+1)
  2731  068E  01F4               	line	93
  2732                           	
  2733                           l723:	
  2734  068F                     ;Config.c: 93:     _lastA = PORTBbits.RB4;
  2735                           	bcf	status, 5	;RP0=0, select bank0
  2736  068F  1283               	bcf	status, 6	;RP1=0, select bank0
  2737  0690  1303               	swapf	(6),w	;volatile
  2738  0691  0E06               	andlw	(1<<1)-1
  2739  0692  3901               	movwf	(??_config+0)+0
  2740  0693  00F0               	clrf	(??_config+0)+0+1
  2741  0694  01F1               	movf	0+(??_config+0)+0,w
  2742  0695  0870               	movwf	(config@_lastA)
  2743  0696  00F5               	movf	1+(??_config+0)+0,w
  2744  0697  0871               	movwf	(config@_lastA+1)
  2745  0698  00F6               	line	94
  2746                           	
  2747                           l725:	
  2748  0699                     ;Config.c: 94:     _lastB = PORTBbits.RB5;
  2749                           	swapf	(6),w	;volatile
  2750  0699  0E06               	movwf	(??_config+0)+0
  2751  069A  00F0               	rrf	(??_config+0)+0,w
  2752  069B  0C70               	andlw	(1<<1)-1
  2753  069C  3901               	movwf	(??_config+1)+0
  2754  069D  00F1               	clrf	(??_config+1)+0+1
  2755  069E  01F2               	movf	0+(??_config+1)+0,w
  2756  069F  0871               	movwf	(config@_lastB)
  2757  06A0  00F7               	movf	1+(??_config+1)+0,w
  2758  06A1  0872               	movwf	(config@_lastB+1)
  2759  06A2  00F8               	line	95
  2760                           	
  2761                           l86:	
  2762  06A3                     	return
  2763  06A3  0008               	opt stack 0
  2764                           GLOBAL	__end_of_config
  2765                           	__end_of_config:
  2766  06A4                     	signat	_config,89
  2767                           global	___latbits
  2768                           ___latbits	equ	2
  2769  0002                     	global	btemp
  2770                           	btemp set 07Eh
  2771  007E                     
  2772                           	DABS	1,126,2	;btemp
  2773                           	global	wtemp0
  2774                           	wtemp0 set btemp+0
  2775  007E                     	end


Data Sizes:
    Strings     0
    Constant    370
    Data        0
    BSS         0
    Persistent  0
    Stack       0

Auto Spaces:
    Space          Size  Autos    Used
    COMMON           14     13      13
    BANK0            80      8       8
    BANK1            80      0       0
    BANK3            96      0       0
    BANK2            96      0       0

Pointer List with Targets:

    None.

Critical Paths under _main in COMMON

    _main->_config
    _write_volume->_white_space
    _white_space->_spiWrite

Critical Paths under _main in BANK0

    _main->_write_volume

Critical Paths under _main in BANK1

    None.

Critical Paths under _main in BANK3

    None.

Critical Paths under _main in BANK2

    None.

Call Graph Tables:

 ---------------------------------------------------------------------------------
 (Depth) Function   	        Calls       Base Space   Used Autos Params    Refs
 ---------------------------------------------------------------------------------
 (0) _main                                                 4     4      0     362
                                             12 COMMON     1     1      0
                                              5 BANK0      3     3      0
                             _config
                           _spiWrite
                       _write_volume
 ---------------------------------------------------------------------------------
 (1) _write_volume                                         7     7      0     338
                                              8 COMMON     2     2      0
                                              0 BANK0      5     5      0
                           _spiWrite
                        _white_space
 ---------------------------------------------------------------------------------
 (2) _white_space                                          7     7      0     136
                                              1 COMMON     7     7      0
                           _spiWrite
 ---------------------------------------------------------------------------------
 (3) _spiWrite                                             1     1      0      22
                                              0 COMMON     1     1      0
 ---------------------------------------------------------------------------------
 (1) _config                                              12    12      0       0
                                              0 COMMON    12    12      0
 ---------------------------------------------------------------------------------
 Estimated maximum stack depth 3
 ---------------------------------------------------------------------------------

 Call Graph Graphs:

 _main (ROOT)
   _config
   _spiWrite
   _write_volume
     _spiWrite
     _white_space
       _spiWrite

 Address spaces:
Name               Size   Autos  Total    Cost      Usage
BITCOMMON            E      0       0       0        0.0%
EEDATA             100      0       0       0        0.0%
NULL                 0      0       0       0        0.0%
CODE                 0      0       0       0        0.0%
COMMON               E      D       D       1       92.9%
BITSFR0              0      0       0       1        0.0%
SFR0                 0      0       0       1        0.0%
BITSFR1              0      0       0       2        0.0%
SFR1                 0      0       0       2        0.0%
STACK                0      0       0       2        0.0%
ABS                  0      0       0       3        0.0%
BITBANK0            50      0       0       4        0.0%
BITSFR3              0      0       0       4        0.0%
SFR3                 0      0       0       4        0.0%
BANK0               50      8       8       5       10.0%
BITSFR2              0      0       0       5        0.0%
SFR2                 0      0       0       5        0.0%
BITBANK1            50      0       0       6        0.0%
BANK1               50      0       0       7        0.0%
BITBANK3            60      0       0       8        0.0%
BANK3               60      0       0       9        0.0%
BITBANK2            60      0       0      10        0.0%
BANK2               60      0       0      11        0.0%
DATA                 0      0       0      12        0.0%


Microchip Technology PIC Macro Assembler V2.00 build -1524193055 
Symbol Table                                                                                   Tue Dec 25 23:23:23 2018

                         pc 0002                 __CFG_CP$OFF 0000                 _SSPSTATbits 0094  
                        l23 06D5                          l40 06FD                          l24 06F5  
                        l41 070E                          l25 06F6                          l42 073D  
                        l50 07B5                          l26 06F6                          l43 0751  
                        l51 07C8                          l44 0751                          l52 07F8  
                        l53 07FB                          l39 0743                          l47 07A6  
                        l56 0650                          l48 0774                          l57 0650  
                        l49 07A5                          l58 0657                          l59 0657  
                        l86 06A3                          fsr 0004                 _white_space 06F9  
              spiWrite@data 0070                         l701 0678                         l711 0685  
                       l703 067B                         l721 068D                         l713 0686  
                       l705 067E                         l723 068F                         l715 0689  
                       l707 0681                         l811 06FA                         l725 0699  
                       l717 068A                         l709 0682                         l821 0729  
                       l813 06FD                         l901 06D7                         l719 068B  
                       l823 072F                         l815 06FF                         l831 0761  
                       l903 06DD                         l681 0662                         l809 064B  
                       l817 070D                         l825 073D                         l841 0797  
                       l833 0765                         l905 06E0                         l691 066D  
                       l683 0663                         l819 070E                         l851 07C7  
                       l835 0773                         l843 07A6                         l827 0755  
                       l907 06EE                         l693 066E                         l685 0664  
                       l677 0658                         l853 07C8                         l845 07AE  
                       l837 0774                         l829 075B                         l861 06A9  
                       l695 0671                         l687 0665                         l679 065C  
                       l855 07E3                         l847 07B5                         l839 078F  
                       l871 06B6                         l863 06AD                         l697 0672  
                       l689 066A                         l857 07EB                         l849 07B9  
                       l881 06BB                         l873 06B7                         l865 06B1  
                       l699 0675                         l891 06D0                         l883 06C2  
                       l875 06B8                         l867 06B2                         l859 06A4  
                       l893 06D1                         l885 06C5                         l877 06B9  
                       l869 06B3                         l895 06D2                         l887 06C6  
                       l879 06BA                config@_lastA 0075                config@_lastB 0077  
                       l897 06D5                         l889 06CD                         l899 06D6  
                       u110 0656                         u111 0655                         u120 070C  
                       u200 07F8                         u121 070B                         u201 07F7  
                       u130 073C                         u131 073B                         u140 0750  
                       u141 074F                         u125 0708                         u205 07F4  
                       u150 075B                         u135 0738                         u151 075A  
                       u160 0772                         u145 074C                         u161 0771  
                       u217 06E8                         u170 07A4                         u171 07A3  
                       u180 07AE                         u181 07AD                         u165 076E  
                       u190 07C6                         u191 07C5                         u175 07A0  
              __CFG_CPD$OFF 0000                         u195 07C2                         fsr0 0004  
                       indf 0000                __CFG_LVP$OFF 0000                __CFG_WRT$OFF 0000  
                      _main 06A4                        _font 0812               config@display 007B  
                      btemp 007E               __CFG_BOREN$ON 0000                        start 0000  
             __CFG_IESO$OFF 0000                       ?_main 0070               __CFG_WDTE$OFF 0000  
             write_volume@x 0021                       _PORTA 0005                       _PORTC 0007  
                     _TRISC 0087                       _TRISD 0088              __CFG_FCMEN$OFF 0000  
                     pclath 000A                       status 0003                       wtemp0 007E  
            __CFG_MCLRE$OFF 0000             __initialization 07FC                __end_of_main 06F9  
              __end_of_font 0984                      ??_main 0025       __size_of_write_volume 00AA  
          white_space@kolom 0074                      _OSCCON 008F                      _SSPCON 0014  
                    _SSPBUF 0013              __CFG_PWRTE$OFF 0000                _write_volume 0752  
                    _config 0658            __end_of_spiWrite 0658     __end_of__initialization 07FC  
            __pcstackCOMMON 0070        config@_selectedInput 0073                ?_white_space 0070  
                __pmaintext 06A4                     ?_config 0070                     _SSPSTAT 0094  
                __stringtab 0800                   ?_spiWrite 0070             __size_of_config 004C  
                 _ANSELbits 0188                     __ptext1 0752                     __ptext2 06F9  
                   __ptext3 064A                     __ptext4 0658    white_space@aantal_spaces 0073  
      end_of_initialization 07FC           write_volume@x_194 0023                  ??_spiWrite 0070  
              __pstringtext 0800                   _PORTBbits 0006                   _PORTCbits 0007  
      __size_of_white_space 0059                   _TRISAbits 0085                   _TRISBbits 0086  
                 _TRISCbits 0087                   _TRISEbits 0089                  config@data 007A  
                main@volume 007C              __end_of_config 06A4         start_initialization 07FC  
                  ??_config 0070                   ___latbits 0002               __pcstackBANK0 0020  
    __CFG_FOSC$INTRC_CLKOUT 0000           __size_of_spiWrite 000E                    _IOCBbits 0096  
             ?_write_volume 0070                 __stringbase 0812              white_space@rij 0076  
            ??_write_volume 0078               ??_white_space 0071          __end_of__stringtab 0812  
                _ANSELHbits 0189           __CFG_BOR4V$BOR21V 0000               __size_of_main 0055  
                  _spiWrite 064A  config@_inputUpdateRequired 0079                  _INTCONbits 000B  
       __end_of_white_space 0752          write_volume@volume 0020                   stringcode 080A  
                  stringtab 0800        __end_of_write_volume 07FC  
