

Microchip Technology PIC LITE Macro Assembler V2.00 build -1524193055 
                                                                                               Mon Dec 24 22:01:04 2018

Microchip Technology Omniscient Code Generator v2.00 (Free mode) build 20180527130849
     1  0000                     
      + 0000                     
     2                           ; Version 2.00
     3                           ; Generated 27/05/2018 GMT
     4                           
     5                           ; 
     6                           ; Copyright © 2018, Microchip Technology Inc. and its subsidiaries ("Microchip")
     7                           ; All rights reserved.
     8                           ; 
     9                           ; This software is developed by Microchip Technology Inc. and its subsidiaries ("Microch
                                 ip").
    10                           ; 
    11                           ; Redistribution and use in source and binary forms, with or without modification, are
    12                           ; permitted provided that the following conditions are met:
    13                           ; 
    14                           ;     1. Redistributions of source code must retain the above copyright notice, this lis
                                 t of
    15                           ;        conditions and the following disclaimer.
    16                           ; 
    17                           ;     2. Redistributions in binary form must reproduce the above copyright notice, this 
                                 list
    18                           ;        of conditions and the following disclaimer in the documentation and/or other
    19                           ;        materials provided with the distribution.
    20                           ; 
    21                           ;     3. Microchip's name may not be used to endorse or promote products derived from th
                                 is
    22                           ;        software without specific prior written permission.
    23                           ; 
    24                           ; THIS SOFTWARE IS PROVIDED BY MICROCHIP "AS IS" AND ANY EXPRESS OR IMPLIED WARRANTIES,

    25                           ; INCLUDING, BUT NOT LIMITED TO, THE IMPLIED WARRANTIES OF MERCHANTABILITY AND FITNESS F
                                 OR
    26                           ; PURPOSE ARE DISCLAIMED.  IN NO EVENT SHALL MICROCHIP BE LIABLE FOR ANY DIRECT, INDIREC
                                 T,
    27                           ; INCIDENTAL, SPECIAL, EXEMPLARY, OR CONSEQUENTIAL DAMAGES (INCLUDING BUT NOT LIMITED TO
                                 
    28                           ; PROCUREMENT OF SUBSTITUTE GOODS OR SERVICES; LOSS OF USE, DATA OR PROFITS; OR BUSINESS
                                 
    29                           ; INTERRUPTION) HOWSOEVER CAUSED AND ON ANY THEORY OF LIABILITY, WHETHER IN CONTRACT, ST
                                 RICT
    30                           ; LIABILITY, OR TORT (INCLUDING NEGLIGENCE OR OTHERWISE) ARISING IN ANY WAY OUT OF THE U
                                 SE OF
    31                           ; THIS SOFTWARE, EVEN IF ADVISED OF THE POSSIBILITY OF SUCH DAMAGE.
    32                           ; 
    33                           
    34                           
    35                           ; 
    36                           ; Code-generator required, PIC16F887 Definitions
    37                           ; 
    38  0004                     fsr0 equ 04h
    39  0004                     indf equ 00h
    40  0000                     indf0 equ 00h
    41  0000                     pc equ 02h
    42  0002                     pcl equ 02h
    43  0002                     pclath equ 0Ah
    44  000A                     status equ 03h
    45  0003                     
     2                           opt pagewidth 120
     3  0000                     byte0	macro	val
     4                           	(getbyte(val,0))
     5                           endm
     6  0000                     byte1	macro	val
     7                           	(getbyte(val,1))
     8                           endm
     9  0000                     byte2	macro	val
    10                           	(getbyte(val,2))
    11                           endm
    12  0000                     byte3	macro	val
    13                           	(getbyte(val,3))
    14                           endm
    15  0000                     byte4	macro	val
    16                           	(getbyte(val,4))
    17                           endm
    18  0000                     byte5	macro	val
    19                           	(getbyte(val,5))
    20                           endm
    21  0000                     byte6	macro	val
    22                           	(getbyte(val,6))
    23                           endm
    24  0000                     byte7	macro	val
    25                           	(getbyte(val,7))
    26                           endm
    27  0000                     getword	macro	val,pos
    28                           	(((val) >> (8 * pos)) and 0xffff)
    29                           endm
    30  0000                     word0	macro	val
    31                           	(getword(val,0))
    32                           endm
    33  0000                     word1	macro	val
    34                           	(getword(val,2))
    35                           endm
    36  0000                     word2	macro	val
    37                           	(getword(val,4))
    38                           endm
    39  0000                     word3	macro	val
    40                           	(getword(val,6))
    41                           endm
    42  0000                     gettword	macro	val,pos
    43                           	(((val) >> (8 * pos)) and 0xffffff)
    44                           endm
    45  0000                     tword0	macro	val
    46                           	(gettword(val,0))
    47                           endm
    48  0000                     tword1	macro	val
    49                           	(gettword(val,3))
    50                           endm
    51  0000                     tword2	macro	val
    52                           	(gettword(val,6))
    53                           endm
    54  0000                     getdword	macro	val,pos
    55                           	(((val) >> (8 * pos)) and 0xffffffff)
    56                           endm
    57  0000                     dword0	macro	val
    58                           	(getdword(val,0))
    59                           endm
    60  0000                     dword1	macro	val
    61                           	(getdword(val,4))
    62                           endm
    63  0000                     clrc	macro
    64                           	bcf	3,0
    65                           	endm
    66  0000                     clrz	macro
    67                           	bcf	3,2
    68                           	endm
    69  0000                     setc	macro
    70                           	bsf	3,0
    71                           	endm
    72  0000                     setz	macro
    73                           	bsf	3,2
    74                           	endm
    75  0000                     skipc	macro
    76                           	btfss	3,0
    77                           	endm
    78  0000                     skipz	macro
    79                           	btfss	3,2
    80                           	endm
    81  0000                     skipnc	macro
    82                           	btfsc	3,0
    83                           	endm
    84  0000                     skipnz	macro
    85                           	btfsc	3,2
    86                           	endm
    87  0000                     # 54 "C:\Program Files (x86)\Microchip\xc8\v2.00\pic\include\pic16f887.h"
    88                           INDF equ 00h ;# 
    89  0000                     # 61 "C:\Program Files (x86)\Microchip\xc8\v2.00\pic\include\pic16f887.h"
    90                           TMR0 equ 01h ;# 
    91  0001                     # 68 "C:\Program Files (x86)\Microchip\xc8\v2.00\pic\include\pic16f887.h"
    92                           PCL equ 02h ;# 
    93  0002                     # 75 "C:\Program Files (x86)\Microchip\xc8\v2.00\pic\include\pic16f887.h"
    94                           STATUS equ 03h ;# 
    95  0003                     # 161 "C:\Program Files (x86)\Microchip\xc8\v2.00\pic\include\pic16f887.h"
    96                           FSR equ 04h ;# 
    97  0004                     # 168 "C:\Program Files (x86)\Microchip\xc8\v2.00\pic\include\pic16f887.h"
    98                           PORTA equ 05h ;# 
    99  0005                     # 230 "C:\Program Files (x86)\Microchip\xc8\v2.00\pic\include\pic16f887.h"
   100                           PORTB equ 06h ;# 
   101  0006                     # 292 "C:\Program Files (x86)\Microchip\xc8\v2.00\pic\include\pic16f887.h"
   102                           PORTC equ 07h ;# 
   103  0007                     # 354 "C:\Program Files (x86)\Microchip\xc8\v2.00\pic\include\pic16f887.h"
   104                           PORTD equ 08h ;# 
   105  0008                     # 416 "C:\Program Files (x86)\Microchip\xc8\v2.00\pic\include\pic16f887.h"
   106                           PORTE equ 09h ;# 
   107  0009                     # 454 "C:\Program Files (x86)\Microchip\xc8\v2.00\pic\include\pic16f887.h"
   108                           PCLATH equ 0Ah ;# 
   109  000A                     # 461 "C:\Program Files (x86)\Microchip\xc8\v2.00\pic\include\pic16f887.h"
   110                           INTCON equ 0Bh ;# 
   111  000B                     # 539 "C:\Program Files (x86)\Microchip\xc8\v2.00\pic\include\pic16f887.h"
   112                           PIR1 equ 0Ch ;# 
   113  000C                     # 595 "C:\Program Files (x86)\Microchip\xc8\v2.00\pic\include\pic16f887.h"
   114                           PIR2 equ 0Dh ;# 
   115  000D                     # 652 "C:\Program Files (x86)\Microchip\xc8\v2.00\pic\include\pic16f887.h"
   116                           TMR1 equ 0Eh ;# 
   117  000E                     # 659 "C:\Program Files (x86)\Microchip\xc8\v2.00\pic\include\pic16f887.h"
   118                           TMR1L equ 0Eh ;# 
   119  000E                     # 666 "C:\Program Files (x86)\Microchip\xc8\v2.00\pic\include\pic16f887.h"
   120                           TMR1H equ 0Fh ;# 
   121  000F                     # 673 "C:\Program Files (x86)\Microchip\xc8\v2.00\pic\include\pic16f887.h"
   122                           T1CON equ 010h ;# 
   123  0010                     # 767 "C:\Program Files (x86)\Microchip\xc8\v2.00\pic\include\pic16f887.h"
   124                           TMR2 equ 011h ;# 
   125  0011                     # 774 "C:\Program Files (x86)\Microchip\xc8\v2.00\pic\include\pic16f887.h"
   126                           T2CON equ 012h ;# 
   127  0012                     # 845 "C:\Program Files (x86)\Microchip\xc8\v2.00\pic\include\pic16f887.h"
   128                           SSPBUF equ 013h ;# 
   129  0013                     # 852 "C:\Program Files (x86)\Microchip\xc8\v2.00\pic\include\pic16f887.h"
   130                           SSPCON equ 014h ;# 
   131  0014                     # 922 "C:\Program Files (x86)\Microchip\xc8\v2.00\pic\include\pic16f887.h"
   132                           CCPR1 equ 015h ;# 
   133  0015                     # 929 "C:\Program Files (x86)\Microchip\xc8\v2.00\pic\include\pic16f887.h"
   134                           CCPR1L equ 015h ;# 
   135  0015                     # 936 "C:\Program Files (x86)\Microchip\xc8\v2.00\pic\include\pic16f887.h"
   136                           CCPR1H equ 016h ;# 
   137  0016                     # 943 "C:\Program Files (x86)\Microchip\xc8\v2.00\pic\include\pic16f887.h"
   138                           CCP1CON equ 017h ;# 
   139  0017                     # 1040 "C:\Program Files (x86)\Microchip\xc8\v2.00\pic\include\pic16f887.h"
   140                           RCSTA equ 018h ;# 
   141  0018                     # 1135 "C:\Program Files (x86)\Microchip\xc8\v2.00\pic\include\pic16f887.h"
   142                           TXREG equ 019h ;# 
   143  0019                     # 1142 "C:\Program Files (x86)\Microchip\xc8\v2.00\pic\include\pic16f887.h"
   144                           RCREG equ 01Ah ;# 
   145  001A                     # 1149 "C:\Program Files (x86)\Microchip\xc8\v2.00\pic\include\pic16f887.h"
   146                           CCPR2 equ 01Bh ;# 
   147  001B                     # 1156 "C:\Program Files (x86)\Microchip\xc8\v2.00\pic\include\pic16f887.h"
   148                           CCPR2L equ 01Bh ;# 
   149  001B                     # 1163 "C:\Program Files (x86)\Microchip\xc8\v2.00\pic\include\pic16f887.h"
   150                           CCPR2H equ 01Ch ;# 
   151  001C                     # 1170 "C:\Program Files (x86)\Microchip\xc8\v2.00\pic\include\pic16f887.h"
   152                           CCP2CON equ 01Dh ;# 
   153  001D                     # 1240 "C:\Program Files (x86)\Microchip\xc8\v2.00\pic\include\pic16f887.h"
   154                           ADRESH equ 01Eh ;# 
   155  001E                     # 1247 "C:\Program Files (x86)\Microchip\xc8\v2.00\pic\include\pic16f887.h"
   156                           ADCON0 equ 01Fh ;# 
   157  001F                     # 1348 "C:\Program Files (x86)\Microchip\xc8\v2.00\pic\include\pic16f887.h"
   158                           OPTION_REG equ 081h ;# 
   159  0081                     # 1418 "C:\Program Files (x86)\Microchip\xc8\v2.00\pic\include\pic16f887.h"
   160                           TRISA equ 085h ;# 
   161  0085                     # 1480 "C:\Program Files (x86)\Microchip\xc8\v2.00\pic\include\pic16f887.h"
   162                           TRISB equ 086h ;# 
   163  0086                     # 1542 "C:\Program Files (x86)\Microchip\xc8\v2.00\pic\include\pic16f887.h"
   164                           TRISC equ 087h ;# 
   165  0087                     # 1604 "C:\Program Files (x86)\Microchip\xc8\v2.00\pic\include\pic16f887.h"
   166                           TRISD equ 088h ;# 
   167  0088                     # 1666 "C:\Program Files (x86)\Microchip\xc8\v2.00\pic\include\pic16f887.h"
   168                           TRISE equ 089h ;# 
   169  0089                     # 1704 "C:\Program Files (x86)\Microchip\xc8\v2.00\pic\include\pic16f887.h"
   170                           PIE1 equ 08Ch ;# 
   171  008C                     # 1760 "C:\Program Files (x86)\Microchip\xc8\v2.00\pic\include\pic16f887.h"
   172                           PIE2 equ 08Dh ;# 
   173  008D                     # 1817 "C:\Program Files (x86)\Microchip\xc8\v2.00\pic\include\pic16f887.h"
   174                           PCON equ 08Eh ;# 
   175  008E                     # 1864 "C:\Program Files (x86)\Microchip\xc8\v2.00\pic\include\pic16f887.h"
   176                           OSCCON equ 08Fh ;# 
   177  008F                     # 1929 "C:\Program Files (x86)\Microchip\xc8\v2.00\pic\include\pic16f887.h"
   178                           OSCTUNE equ 090h ;# 
   179  0090                     # 1981 "C:\Program Files (x86)\Microchip\xc8\v2.00\pic\include\pic16f887.h"
   180                           SSPCON2 equ 091h ;# 
   181  0091                     # 2043 "C:\Program Files (x86)\Microchip\xc8\v2.00\pic\include\pic16f887.h"
   182                           PR2 equ 092h ;# 
   183  0092                     # 2050 "C:\Program Files (x86)\Microchip\xc8\v2.00\pic\include\pic16f887.h"
   184                           SSPADD equ 093h ;# 
   185  0093                     # 2057 "C:\Program Files (x86)\Microchip\xc8\v2.00\pic\include\pic16f887.h"
   186                           SSPMSK equ 093h ;# 
   187  0093                     # 2062 "C:\Program Files (x86)\Microchip\xc8\v2.00\pic\include\pic16f887.h"
   188                           MSK equ 093h ;# 
   189  0093                     # 2179 "C:\Program Files (x86)\Microchip\xc8\v2.00\pic\include\pic16f887.h"
   190                           SSPSTAT equ 094h ;# 
   191  0094                     # 2348 "C:\Program Files (x86)\Microchip\xc8\v2.00\pic\include\pic16f887.h"
   192                           WPUB equ 095h ;# 
   193  0095                     # 2418 "C:\Program Files (x86)\Microchip\xc8\v2.00\pic\include\pic16f887.h"
   194                           IOCB equ 096h ;# 
   195  0096                     # 2488 "C:\Program Files (x86)\Microchip\xc8\v2.00\pic\include\pic16f887.h"
   196                           VRCON equ 097h ;# 
   197  0097                     # 2558 "C:\Program Files (x86)\Microchip\xc8\v2.00\pic\include\pic16f887.h"
   198                           TXSTA equ 098h ;# 
   199  0098                     # 2644 "C:\Program Files (x86)\Microchip\xc8\v2.00\pic\include\pic16f887.h"
   200                           SPBRG equ 099h ;# 
   201  0099                     # 2706 "C:\Program Files (x86)\Microchip\xc8\v2.00\pic\include\pic16f887.h"
   202                           SPBRGH equ 09Ah ;# 
   203  009A                     # 2776 "C:\Program Files (x86)\Microchip\xc8\v2.00\pic\include\pic16f887.h"
   204                           PWM1CON equ 09Bh ;# 
   205  009B                     # 2846 "C:\Program Files (x86)\Microchip\xc8\v2.00\pic\include\pic16f887.h"
   206                           ECCPAS equ 09Ch ;# 
   207  009C                     # 2928 "C:\Program Files (x86)\Microchip\xc8\v2.00\pic\include\pic16f887.h"
   208                           PSTRCON equ 09Dh ;# 
   209  009D                     # 2972 "C:\Program Files (x86)\Microchip\xc8\v2.00\pic\include\pic16f887.h"
   210                           ADRESL equ 09Eh ;# 
   211  009E                     # 2979 "C:\Program Files (x86)\Microchip\xc8\v2.00\pic\include\pic16f887.h"
   212                           ADCON1 equ 09Fh ;# 
   213  009F                     # 3013 "C:\Program Files (x86)\Microchip\xc8\v2.00\pic\include\pic16f887.h"
   214                           WDTCON equ 0105h ;# 
   215  0105                     # 3066 "C:\Program Files (x86)\Microchip\xc8\v2.00\pic\include\pic16f887.h"
   216                           CM1CON0 equ 0107h ;# 
   217  0107                     # 3131 "C:\Program Files (x86)\Microchip\xc8\v2.00\pic\include\pic16f887.h"
   218                           CM2CON0 equ 0108h ;# 
   219  0108                     # 3196 "C:\Program Files (x86)\Microchip\xc8\v2.00\pic\include\pic16f887.h"
   220                           CM2CON1 equ 0109h ;# 
   221  0109                     # 3247 "C:\Program Files (x86)\Microchip\xc8\v2.00\pic\include\pic16f887.h"
   222                           EEDATA equ 010Ch ;# 
   223  010C                     # 3252 "C:\Program Files (x86)\Microchip\xc8\v2.00\pic\include\pic16f887.h"
   224                           EEDAT equ 010Ch ;# 
   225  010C                     # 3259 "C:\Program Files (x86)\Microchip\xc8\v2.00\pic\include\pic16f887.h"
   226                           EEADR equ 010Dh ;# 
   227  010D                     # 3266 "C:\Program Files (x86)\Microchip\xc8\v2.00\pic\include\pic16f887.h"
   228                           EEDATH equ 010Eh ;# 
   229  010E                     # 3273 "C:\Program Files (x86)\Microchip\xc8\v2.00\pic\include\pic16f887.h"
   230                           EEADRH equ 010Fh ;# 
   231  010F                     # 3280 "C:\Program Files (x86)\Microchip\xc8\v2.00\pic\include\pic16f887.h"
   232                           SRCON equ 0185h ;# 
   233  0185                     # 3337 "C:\Program Files (x86)\Microchip\xc8\v2.00\pic\include\pic16f887.h"
   234                           BAUDCTL equ 0187h ;# 
   235  0187                     # 3389 "C:\Program Files (x86)\Microchip\xc8\v2.00\pic\include\pic16f887.h"
   236                           ANSEL equ 0188h ;# 
   237  0188                     # 3451 "C:\Program Files (x86)\Microchip\xc8\v2.00\pic\include\pic16f887.h"
   238                           ANSELH equ 0189h ;# 
   239  0189                     # 3501 "C:\Program Files (x86)\Microchip\xc8\v2.00\pic\include\pic16f887.h"
   240                           EECON1 equ 018Ch ;# 
   241  018C                     # 3546 "C:\Program Files (x86)\Microchip\xc8\v2.00\pic\include\pic16f887.h"
   242                           EECON2 equ 018Dh ;# 
   243  018D                     # 54 "C:\Program Files (x86)\Microchip\xc8\v2.00\pic\include\pic16f887.h"
   244                           INDF equ 00h ;# 
   245  0000                     # 61 "C:\Program Files (x86)\Microchip\xc8\v2.00\pic\include\pic16f887.h"
   246                           TMR0 equ 01h ;# 
   247  0001                     # 68 "C:\Program Files (x86)\Microchip\xc8\v2.00\pic\include\pic16f887.h"
   248                           PCL equ 02h ;# 
   249  0002                     # 75 "C:\Program Files (x86)\Microchip\xc8\v2.00\pic\include\pic16f887.h"
   250                           STATUS equ 03h ;# 
   251  0003                     # 161 "C:\Program Files (x86)\Microchip\xc8\v2.00\pic\include\pic16f887.h"
   252                           FSR equ 04h ;# 
   253  0004                     # 168 "C:\Program Files (x86)\Microchip\xc8\v2.00\pic\include\pic16f887.h"
   254                           PORTA equ 05h ;# 
   255  0005                     # 230 "C:\Program Files (x86)\Microchip\xc8\v2.00\pic\include\pic16f887.h"
   256                           PORTB equ 06h ;# 
   257  0006                     # 292 "C:\Program Files (x86)\Microchip\xc8\v2.00\pic\include\pic16f887.h"
   258                           PORTC equ 07h ;# 
   259  0007                     # 354 "C:\Program Files (x86)\Microchip\xc8\v2.00\pic\include\pic16f887.h"
   260                           PORTD equ 08h ;# 
   261  0008                     # 416 "C:\Program Files (x86)\Microchip\xc8\v2.00\pic\include\pic16f887.h"
   262                           PORTE equ 09h ;# 
   263  0009                     # 454 "C:\Program Files (x86)\Microchip\xc8\v2.00\pic\include\pic16f887.h"
   264                           PCLATH equ 0Ah ;# 
   265  000A                     # 461 "C:\Program Files (x86)\Microchip\xc8\v2.00\pic\include\pic16f887.h"
   266                           INTCON equ 0Bh ;# 
   267  000B                     # 539 "C:\Program Files (x86)\Microchip\xc8\v2.00\pic\include\pic16f887.h"
   268                           PIR1 equ 0Ch ;# 
   269  000C                     # 595 "C:\Program Files (x86)\Microchip\xc8\v2.00\pic\include\pic16f887.h"
   270                           PIR2 equ 0Dh ;# 
   271  000D                     # 652 "C:\Program Files (x86)\Microchip\xc8\v2.00\pic\include\pic16f887.h"
   272                           TMR1 equ 0Eh ;# 
   273  000E                     # 659 "C:\Program Files (x86)\Microchip\xc8\v2.00\pic\include\pic16f887.h"
   274                           TMR1L equ 0Eh ;# 
   275  000E                     # 666 "C:\Program Files (x86)\Microchip\xc8\v2.00\pic\include\pic16f887.h"
   276                           TMR1H equ 0Fh ;# 
   277  000F                     # 673 "C:\Program Files (x86)\Microchip\xc8\v2.00\pic\include\pic16f887.h"
   278                           T1CON equ 010h ;# 
   279  0010                     # 767 "C:\Program Files (x86)\Microchip\xc8\v2.00\pic\include\pic16f887.h"
   280                           TMR2 equ 011h ;# 
   281  0011                     # 774 "C:\Program Files (x86)\Microchip\xc8\v2.00\pic\include\pic16f887.h"
   282                           T2CON equ 012h ;# 
   283  0012                     # 845 "C:\Program Files (x86)\Microchip\xc8\v2.00\pic\include\pic16f887.h"
   284                           SSPBUF equ 013h ;# 
   285  0013                     # 852 "C:\Program Files (x86)\Microchip\xc8\v2.00\pic\include\pic16f887.h"
   286                           SSPCON equ 014h ;# 
   287  0014                     # 922 "C:\Program Files (x86)\Microchip\xc8\v2.00\pic\include\pic16f887.h"
   288                           CCPR1 equ 015h ;# 
   289  0015                     # 929 "C:\Program Files (x86)\Microchip\xc8\v2.00\pic\include\pic16f887.h"
   290                           CCPR1L equ 015h ;# 
   291  0015                     # 936 "C:\Program Files (x86)\Microchip\xc8\v2.00\pic\include\pic16f887.h"
   292                           CCPR1H equ 016h ;# 
   293  0016                     # 943 "C:\Program Files (x86)\Microchip\xc8\v2.00\pic\include\pic16f887.h"
   294                           CCP1CON equ 017h ;# 
   295  0017                     # 1040 "C:\Program Files (x86)\Microchip\xc8\v2.00\pic\include\pic16f887.h"
   296                           RCSTA equ 018h ;# 
   297  0018                     # 1135 "C:\Program Files (x86)\Microchip\xc8\v2.00\pic\include\pic16f887.h"
   298                           TXREG equ 019h ;# 
   299  0019                     # 1142 "C:\Program Files (x86)\Microchip\xc8\v2.00\pic\include\pic16f887.h"
   300                           RCREG equ 01Ah ;# 
   301  001A                     # 1149 "C:\Program Files (x86)\Microchip\xc8\v2.00\pic\include\pic16f887.h"
   302                           CCPR2 equ 01Bh ;# 
   303  001B                     # 1156 "C:\Program Files (x86)\Microchip\xc8\v2.00\pic\include\pic16f887.h"
   304                           CCPR2L equ 01Bh ;# 
   305  001B                     # 1163 "C:\Program Files (x86)\Microchip\xc8\v2.00\pic\include\pic16f887.h"
   306                           CCPR2H equ 01Ch ;# 
   307  001C                     # 1170 "C:\Program Files (x86)\Microchip\xc8\v2.00\pic\include\pic16f887.h"
   308                           CCP2CON equ 01Dh ;# 
   309  001D                     # 1240 "C:\Program Files (x86)\Microchip\xc8\v2.00\pic\include\pic16f887.h"
   310                           ADRESH equ 01Eh ;# 
   311  001E                     # 1247 "C:\Program Files (x86)\Microchip\xc8\v2.00\pic\include\pic16f887.h"
   312                           ADCON0 equ 01Fh ;# 
   313  001F                     # 1348 "C:\Program Files (x86)\Microchip\xc8\v2.00\pic\include\pic16f887.h"
   314                           OPTION_REG equ 081h ;# 
   315  0081                     # 1418 "C:\Program Files (x86)\Microchip\xc8\v2.00\pic\include\pic16f887.h"
   316                           TRISA equ 085h ;# 
   317  0085                     # 1480 "C:\Program Files (x86)\Microchip\xc8\v2.00\pic\include\pic16f887.h"
   318                           TRISB equ 086h ;# 
   319  0086                     # 1542 "C:\Program Files (x86)\Microchip\xc8\v2.00\pic\include\pic16f887.h"
   320                           TRISC equ 087h ;# 
   321  0087                     # 1604 "C:\Program Files (x86)\Microchip\xc8\v2.00\pic\include\pic16f887.h"
   322                           TRISD equ 088h ;# 
   323  0088                     # 1666 "C:\Program Files (x86)\Microchip\xc8\v2.00\pic\include\pic16f887.h"
   324                           TRISE equ 089h ;# 
   325  0089                     # 1704 "C:\Program Files (x86)\Microchip\xc8\v2.00\pic\include\pic16f887.h"
   326                           PIE1 equ 08Ch ;# 
   327  008C                     # 1760 "C:\Program Files (x86)\Microchip\xc8\v2.00\pic\include\pic16f887.h"
   328                           PIE2 equ 08Dh ;# 
   329  008D                     # 1817 "C:\Program Files (x86)\Microchip\xc8\v2.00\pic\include\pic16f887.h"
   330                           PCON equ 08Eh ;# 
   331  008E                     # 1864 "C:\Program Files (x86)\Microchip\xc8\v2.00\pic\include\pic16f887.h"
   332                           OSCCON equ 08Fh ;# 
   333  008F                     # 1929 "C:\Program Files (x86)\Microchip\xc8\v2.00\pic\include\pic16f887.h"
   334                           OSCTUNE equ 090h ;# 
   335  0090                     # 1981 "C:\Program Files (x86)\Microchip\xc8\v2.00\pic\include\pic16f887.h"
   336                           SSPCON2 equ 091h ;# 
   337  0091                     # 2043 "C:\Program Files (x86)\Microchip\xc8\v2.00\pic\include\pic16f887.h"
   338                           PR2 equ 092h ;# 
   339  0092                     # 2050 "C:\Program Files (x86)\Microchip\xc8\v2.00\pic\include\pic16f887.h"
   340                           SSPADD equ 093h ;# 
   341  0093                     # 2057 "C:\Program Files (x86)\Microchip\xc8\v2.00\pic\include\pic16f887.h"
   342                           SSPMSK equ 093h ;# 
   343  0093                     # 2062 "C:\Program Files (x86)\Microchip\xc8\v2.00\pic\include\pic16f887.h"
   344                           MSK equ 093h ;# 
   345  0093                     # 2179 "C:\Program Files (x86)\Microchip\xc8\v2.00\pic\include\pic16f887.h"
   346                           SSPSTAT equ 094h ;# 
   347  0094                     # 2348 "C:\Program Files (x86)\Microchip\xc8\v2.00\pic\include\pic16f887.h"
   348                           WPUB equ 095h ;# 
   349  0095                     # 2418 "C:\Program Files (x86)\Microchip\xc8\v2.00\pic\include\pic16f887.h"
   350                           IOCB equ 096h ;# 
   351  0096                     # 2488 "C:\Program Files (x86)\Microchip\xc8\v2.00\pic\include\pic16f887.h"
   352                           VRCON equ 097h ;# 
   353  0097                     # 2558 "C:\Program Files (x86)\Microchip\xc8\v2.00\pic\include\pic16f887.h"
   354                           TXSTA equ 098h ;# 
   355  0098                     # 2644 "C:\Program Files (x86)\Microchip\xc8\v2.00\pic\include\pic16f887.h"
   356                           SPBRG equ 099h ;# 
   357  0099                     # 2706 "C:\Program Files (x86)\Microchip\xc8\v2.00\pic\include\pic16f887.h"
   358                           SPBRGH equ 09Ah ;# 
   359  009A                     # 2776 "C:\Program Files (x86)\Microchip\xc8\v2.00\pic\include\pic16f887.h"
   360                           PWM1CON equ 09Bh ;# 
   361  009B                     # 2846 "C:\Program Files (x86)\Microchip\xc8\v2.00\pic\include\pic16f887.h"
   362                           ECCPAS equ 09Ch ;# 
   363  009C                     # 2928 "C:\Program Files (x86)\Microchip\xc8\v2.00\pic\include\pic16f887.h"
   364                           PSTRCON equ 09Dh ;# 
   365  009D                     # 2972 "C:\Program Files (x86)\Microchip\xc8\v2.00\pic\include\pic16f887.h"
   366                           ADRESL equ 09Eh ;# 
   367  009E                     # 2979 "C:\Program Files (x86)\Microchip\xc8\v2.00\pic\include\pic16f887.h"
   368                           ADCON1 equ 09Fh ;# 
   369  009F                     # 3013 "C:\Program Files (x86)\Microchip\xc8\v2.00\pic\include\pic16f887.h"
   370                           WDTCON equ 0105h ;# 
   371  0105                     # 3066 "C:\Program Files (x86)\Microchip\xc8\v2.00\pic\include\pic16f887.h"
   372                           CM1CON0 equ 0107h ;# 
   373  0107                     # 3131 "C:\Program Files (x86)\Microchip\xc8\v2.00\pic\include\pic16f887.h"
   374                           CM2CON0 equ 0108h ;# 
   375  0108                     # 3196 "C:\Program Files (x86)\Microchip\xc8\v2.00\pic\include\pic16f887.h"
   376                           CM2CON1 equ 0109h ;# 
   377  0109                     # 3247 "C:\Program Files (x86)\Microchip\xc8\v2.00\pic\include\pic16f887.h"
   378                           EEDATA equ 010Ch ;# 
   379  010C                     # 3252 "C:\Program Files (x86)\Microchip\xc8\v2.00\pic\include\pic16f887.h"
   380                           EEDAT equ 010Ch ;# 
   381  010C                     # 3259 "C:\Program Files (x86)\Microchip\xc8\v2.00\pic\include\pic16f887.h"
   382                           EEADR equ 010Dh ;# 
   383  010D                     # 3266 "C:\Program Files (x86)\Microchip\xc8\v2.00\pic\include\pic16f887.h"
   384                           EEDATH equ 010Eh ;# 
   385  010E                     # 3273 "C:\Program Files (x86)\Microchip\xc8\v2.00\pic\include\pic16f887.h"
   386                           EEADRH equ 010Fh ;# 
   387  010F                     # 3280 "C:\Program Files (x86)\Microchip\xc8\v2.00\pic\include\pic16f887.h"
   388                           SRCON equ 0185h ;# 
   389  0185                     # 3337 "C:\Program Files (x86)\Microchip\xc8\v2.00\pic\include\pic16f887.h"
   390                           BAUDCTL equ 0187h ;# 
   391  0187                     # 3389 "C:\Program Files (x86)\Microchip\xc8\v2.00\pic\include\pic16f887.h"
   392                           ANSEL equ 0188h ;# 
   393  0188                     # 3451 "C:\Program Files (x86)\Microchip\xc8\v2.00\pic\include\pic16f887.h"
   394                           ANSELH equ 0189h ;# 
   395  0189                     # 3501 "C:\Program Files (x86)\Microchip\xc8\v2.00\pic\include\pic16f887.h"
   396                           EECON1 equ 018Ch ;# 
   397  018C                     # 3546 "C:\Program Files (x86)\Microchip\xc8\v2.00\pic\include\pic16f887.h"
   398                           EECON2 equ 018Dh ;# 
   399  018D                     # 54 "C:\Program Files (x86)\Microchip\xc8\v2.00\pic\include\pic16f887.h"
   400                           INDF equ 00h ;# 
   401  0000                     # 61 "C:\Program Files (x86)\Microchip\xc8\v2.00\pic\include\pic16f887.h"
   402                           TMR0 equ 01h ;# 
   403  0001                     # 68 "C:\Program Files (x86)\Microchip\xc8\v2.00\pic\include\pic16f887.h"
   404                           PCL equ 02h ;# 
   405  0002                     # 75 "C:\Program Files (x86)\Microchip\xc8\v2.00\pic\include\pic16f887.h"
   406                           STATUS equ 03h ;# 
   407  0003                     # 161 "C:\Program Files (x86)\Microchip\xc8\v2.00\pic\include\pic16f887.h"
   408                           FSR equ 04h ;# 
   409  0004                     # 168 "C:\Program Files (x86)\Microchip\xc8\v2.00\pic\include\pic16f887.h"
   410                           PORTA equ 05h ;# 
   411  0005                     # 230 "C:\Program Files (x86)\Microchip\xc8\v2.00\pic\include\pic16f887.h"
   412                           PORTB equ 06h ;# 
   413  0006                     # 292 "C:\Program Files (x86)\Microchip\xc8\v2.00\pic\include\pic16f887.h"
   414                           PORTC equ 07h ;# 
   415  0007                     # 354 "C:\Program Files (x86)\Microchip\xc8\v2.00\pic\include\pic16f887.h"
   416                           PORTD equ 08h ;# 
   417  0008                     # 416 "C:\Program Files (x86)\Microchip\xc8\v2.00\pic\include\pic16f887.h"
   418                           PORTE equ 09h ;# 
   419  0009                     # 454 "C:\Program Files (x86)\Microchip\xc8\v2.00\pic\include\pic16f887.h"
   420                           PCLATH equ 0Ah ;# 
   421  000A                     # 461 "C:\Program Files (x86)\Microchip\xc8\v2.00\pic\include\pic16f887.h"
   422                           INTCON equ 0Bh ;# 
   423  000B                     # 539 "C:\Program Files (x86)\Microchip\xc8\v2.00\pic\include\pic16f887.h"
   424                           PIR1 equ 0Ch ;# 
   425  000C                     # 595 "C:\Program Files (x86)\Microchip\xc8\v2.00\pic\include\pic16f887.h"
   426                           PIR2 equ 0Dh ;# 
   427  000D                     # 652 "C:\Program Files (x86)\Microchip\xc8\v2.00\pic\include\pic16f887.h"
   428                           TMR1 equ 0Eh ;# 
   429  000E                     # 659 "C:\Program Files (x86)\Microchip\xc8\v2.00\pic\include\pic16f887.h"
   430                           TMR1L equ 0Eh ;# 
   431  000E                     # 666 "C:\Program Files (x86)\Microchip\xc8\v2.00\pic\include\pic16f887.h"
   432                           TMR1H equ 0Fh ;# 
   433  000F                     # 673 "C:\Program Files (x86)\Microchip\xc8\v2.00\pic\include\pic16f887.h"
   434                           T1CON equ 010h ;# 
   435  0010                     # 767 "C:\Program Files (x86)\Microchip\xc8\v2.00\pic\include\pic16f887.h"
   436                           TMR2 equ 011h ;# 
   437  0011                     # 774 "C:\Program Files (x86)\Microchip\xc8\v2.00\pic\include\pic16f887.h"
   438                           T2CON equ 012h ;# 
   439  0012                     # 845 "C:\Program Files (x86)\Microchip\xc8\v2.00\pic\include\pic16f887.h"
   440                           SSPBUF equ 013h ;# 
   441  0013                     # 852 "C:\Program Files (x86)\Microchip\xc8\v2.00\pic\include\pic16f887.h"
   442                           SSPCON equ 014h ;# 
   443  0014                     # 922 "C:\Program Files (x86)\Microchip\xc8\v2.00\pic\include\pic16f887.h"
   444                           CCPR1 equ 015h ;# 
   445  0015                     # 929 "C:\Program Files (x86)\Microchip\xc8\v2.00\pic\include\pic16f887.h"
   446                           CCPR1L equ 015h ;# 
   447  0015                     # 936 "C:\Program Files (x86)\Microchip\xc8\v2.00\pic\include\pic16f887.h"
   448                           CCPR1H equ 016h ;# 
   449  0016                     # 943 "C:\Program Files (x86)\Microchip\xc8\v2.00\pic\include\pic16f887.h"
   450                           CCP1CON equ 017h ;# 
   451  0017                     # 1040 "C:\Program Files (x86)\Microchip\xc8\v2.00\pic\include\pic16f887.h"
   452                           RCSTA equ 018h ;# 
   453  0018                     # 1135 "C:\Program Files (x86)\Microchip\xc8\v2.00\pic\include\pic16f887.h"
   454                           TXREG equ 019h ;# 
   455  0019                     # 1142 "C:\Program Files (x86)\Microchip\xc8\v2.00\pic\include\pic16f887.h"
   456                           RCREG equ 01Ah ;# 
   457  001A                     # 1149 "C:\Program Files (x86)\Microchip\xc8\v2.00\pic\include\pic16f887.h"
   458                           CCPR2 equ 01Bh ;# 
   459  001B                     # 1156 "C:\Program Files (x86)\Microchip\xc8\v2.00\pic\include\pic16f887.h"
   460                           CCPR2L equ 01Bh ;# 
   461  001B                     # 1163 "C:\Program Files (x86)\Microchip\xc8\v2.00\pic\include\pic16f887.h"
   462                           CCPR2H equ 01Ch ;# 
   463  001C                     # 1170 "C:\Program Files (x86)\Microchip\xc8\v2.00\pic\include\pic16f887.h"
   464                           CCP2CON equ 01Dh ;# 
   465  001D                     # 1240 "C:\Program Files (x86)\Microchip\xc8\v2.00\pic\include\pic16f887.h"
   466                           ADRESH equ 01Eh ;# 
   467  001E                     # 1247 "C:\Program Files (x86)\Microchip\xc8\v2.00\pic\include\pic16f887.h"
   468                           ADCON0 equ 01Fh ;# 
   469  001F                     # 1348 "C:\Program Files (x86)\Microchip\xc8\v2.00\pic\include\pic16f887.h"
   470                           OPTION_REG equ 081h ;# 
   471  0081                     # 1418 "C:\Program Files (x86)\Microchip\xc8\v2.00\pic\include\pic16f887.h"
   472                           TRISA equ 085h ;# 
   473  0085                     # 1480 "C:\Program Files (x86)\Microchip\xc8\v2.00\pic\include\pic16f887.h"
   474                           TRISB equ 086h ;# 
   475  0086                     # 1542 "C:\Program Files (x86)\Microchip\xc8\v2.00\pic\include\pic16f887.h"
   476                           TRISC equ 087h ;# 
   477  0087                     # 1604 "C:\Program Files (x86)\Microchip\xc8\v2.00\pic\include\pic16f887.h"
   478                           TRISD equ 088h ;# 
   479  0088                     # 1666 "C:\Program Files (x86)\Microchip\xc8\v2.00\pic\include\pic16f887.h"
   480                           TRISE equ 089h ;# 
   481  0089                     # 1704 "C:\Program Files (x86)\Microchip\xc8\v2.00\pic\include\pic16f887.h"
   482                           PIE1 equ 08Ch ;# 
   483  008C                     # 1760 "C:\Program Files (x86)\Microchip\xc8\v2.00\pic\include\pic16f887.h"
   484                           PIE2 equ 08Dh ;# 
   485  008D                     # 1817 "C:\Program Files (x86)\Microchip\xc8\v2.00\pic\include\pic16f887.h"
   486                           PCON equ 08Eh ;# 
   487  008E                     # 1864 "C:\Program Files (x86)\Microchip\xc8\v2.00\pic\include\pic16f887.h"
   488                           OSCCON equ 08Fh ;# 
   489  008F                     # 1929 "C:\Program Files (x86)\Microchip\xc8\v2.00\pic\include\pic16f887.h"
   490                           OSCTUNE equ 090h ;# 
   491  0090                     # 1981 "C:\Program Files (x86)\Microchip\xc8\v2.00\pic\include\pic16f887.h"
   492                           SSPCON2 equ 091h ;# 
   493  0091                     # 2043 "C:\Program Files (x86)\Microchip\xc8\v2.00\pic\include\pic16f887.h"
   494                           PR2 equ 092h ;# 
   495  0092                     # 2050 "C:\Program Files (x86)\Microchip\xc8\v2.00\pic\include\pic16f887.h"
   496                           SSPADD equ 093h ;# 
   497  0093                     # 2057 "C:\Program Files (x86)\Microchip\xc8\v2.00\pic\include\pic16f887.h"
   498                           SSPMSK equ 093h ;# 
   499  0093                     # 2062 "C:\Program Files (x86)\Microchip\xc8\v2.00\pic\include\pic16f887.h"
   500                           MSK equ 093h ;# 
   501  0093                     # 2179 "C:\Program Files (x86)\Microchip\xc8\v2.00\pic\include\pic16f887.h"
   502                           SSPSTAT equ 094h ;# 
   503  0094                     # 2348 "C:\Program Files (x86)\Microchip\xc8\v2.00\pic\include\pic16f887.h"
   504                           WPUB equ 095h ;# 
   505  0095                     # 2418 "C:\Program Files (x86)\Microchip\xc8\v2.00\pic\include\pic16f887.h"
   506                           IOCB equ 096h ;# 
   507  0096                     # 2488 "C:\Program Files (x86)\Microchip\xc8\v2.00\pic\include\pic16f887.h"
   508                           VRCON equ 097h ;# 
   509  0097                     # 2558 "C:\Program Files (x86)\Microchip\xc8\v2.00\pic\include\pic16f887.h"
   510                           TXSTA equ 098h ;# 
   511  0098                     # 2644 "C:\Program Files (x86)\Microchip\xc8\v2.00\pic\include\pic16f887.h"
   512                           SPBRG equ 099h ;# 
   513  0099                     # 2706 "C:\Program Files (x86)\Microchip\xc8\v2.00\pic\include\pic16f887.h"
   514                           SPBRGH equ 09Ah ;# 
   515  009A                     # 2776 "C:\Program Files (x86)\Microchip\xc8\v2.00\pic\include\pic16f887.h"
   516                           PWM1CON equ 09Bh ;# 
   517  009B                     # 2846 "C:\Program Files (x86)\Microchip\xc8\v2.00\pic\include\pic16f887.h"
   518                           ECCPAS equ 09Ch ;# 
   519  009C                     # 2928 "C:\Program Files (x86)\Microchip\xc8\v2.00\pic\include\pic16f887.h"
   520                           PSTRCON equ 09Dh ;# 
   521  009D                     # 2972 "C:\Program Files (x86)\Microchip\xc8\v2.00\pic\include\pic16f887.h"
   522                           ADRESL equ 09Eh ;# 
   523  009E                     # 2979 "C:\Program Files (x86)\Microchip\xc8\v2.00\pic\include\pic16f887.h"
   524                           ADCON1 equ 09Fh ;# 
   525  009F                     # 3013 "C:\Program Files (x86)\Microchip\xc8\v2.00\pic\include\pic16f887.h"
   526                           WDTCON equ 0105h ;# 
   527  0105                     # 3066 "C:\Program Files (x86)\Microchip\xc8\v2.00\pic\include\pic16f887.h"
   528                           CM1CON0 equ 0107h ;# 
   529  0107                     # 3131 "C:\Program Files (x86)\Microchip\xc8\v2.00\pic\include\pic16f887.h"
   530                           CM2CON0 equ 0108h ;# 
   531  0108                     # 3196 "C:\Program Files (x86)\Microchip\xc8\v2.00\pic\include\pic16f887.h"
   532                           CM2CON1 equ 0109h ;# 
   533  0109                     # 3247 "C:\Program Files (x86)\Microchip\xc8\v2.00\pic\include\pic16f887.h"
   534                           EEDATA equ 010Ch ;# 
   535  010C                     # 3252 "C:\Program Files (x86)\Microchip\xc8\v2.00\pic\include\pic16f887.h"
   536                           EEDAT equ 010Ch ;# 
   537  010C                     # 3259 "C:\Program Files (x86)\Microchip\xc8\v2.00\pic\include\pic16f887.h"
   538                           EEADR equ 010Dh ;# 
   539  010D                     # 3266 "C:\Program Files (x86)\Microchip\xc8\v2.00\pic\include\pic16f887.h"
   540                           EEDATH equ 010Eh ;# 
   541  010E                     # 3273 "C:\Program Files (x86)\Microchip\xc8\v2.00\pic\include\pic16f887.h"
   542                           EEADRH equ 010Fh ;# 
   543  010F                     # 3280 "C:\Program Files (x86)\Microchip\xc8\v2.00\pic\include\pic16f887.h"
   544                           SRCON equ 0185h ;# 
   545  0185                     # 3337 "C:\Program Files (x86)\Microchip\xc8\v2.00\pic\include\pic16f887.h"
   546                           BAUDCTL equ 0187h ;# 
   547  0187                     # 3389 "C:\Program Files (x86)\Microchip\xc8\v2.00\pic\include\pic16f887.h"
   548                           ANSEL equ 0188h ;# 
   549  0188                     # 3451 "C:\Program Files (x86)\Microchip\xc8\v2.00\pic\include\pic16f887.h"
   550                           ANSELH equ 0189h ;# 
   551  0189                     # 3501 "C:\Program Files (x86)\Microchip\xc8\v2.00\pic\include\pic16f887.h"
   552                           EECON1 equ 018Ch ;# 
   553  018C                     # 3546 "C:\Program Files (x86)\Microchip\xc8\v2.00\pic\include\pic16f887.h"
   554                           EECON2 equ 018Dh ;# 
   555  018D                     # 54 "C:\Program Files (x86)\Microchip\xc8\v2.00\pic\include\pic16f887.h"
   556                           INDF equ 00h ;# 
   557  0000                     # 61 "C:\Program Files (x86)\Microchip\xc8\v2.00\pic\include\pic16f887.h"
   558                           TMR0 equ 01h ;# 
   559  0001                     # 68 "C:\Program Files (x86)\Microchip\xc8\v2.00\pic\include\pic16f887.h"
   560                           PCL equ 02h ;# 
   561  0002                     # 75 "C:\Program Files (x86)\Microchip\xc8\v2.00\pic\include\pic16f887.h"
   562                           STATUS equ 03h ;# 
   563  0003                     # 161 "C:\Program Files (x86)\Microchip\xc8\v2.00\pic\include\pic16f887.h"
   564                           FSR equ 04h ;# 
   565  0004                     # 168 "C:\Program Files (x86)\Microchip\xc8\v2.00\pic\include\pic16f887.h"
   566                           PORTA equ 05h ;# 
   567  0005                     # 230 "C:\Program Files (x86)\Microchip\xc8\v2.00\pic\include\pic16f887.h"
   568                           PORTB equ 06h ;# 
   569  0006                     # 292 "C:\Program Files (x86)\Microchip\xc8\v2.00\pic\include\pic16f887.h"
   570                           PORTC equ 07h ;# 
   571  0007                     # 354 "C:\Program Files (x86)\Microchip\xc8\v2.00\pic\include\pic16f887.h"
   572                           PORTD equ 08h ;# 
   573  0008                     # 416 "C:\Program Files (x86)\Microchip\xc8\v2.00\pic\include\pic16f887.h"
   574                           PORTE equ 09h ;# 
   575  0009                     # 454 "C:\Program Files (x86)\Microchip\xc8\v2.00\pic\include\pic16f887.h"
   576                           PCLATH equ 0Ah ;# 
   577  000A                     # 461 "C:\Program Files (x86)\Microchip\xc8\v2.00\pic\include\pic16f887.h"
   578                           INTCON equ 0Bh ;# 
   579  000B                     # 539 "C:\Program Files (x86)\Microchip\xc8\v2.00\pic\include\pic16f887.h"
   580                           PIR1 equ 0Ch ;# 
   581  000C                     # 595 "C:\Program Files (x86)\Microchip\xc8\v2.00\pic\include\pic16f887.h"
   582                           PIR2 equ 0Dh ;# 
   583  000D                     # 652 "C:\Program Files (x86)\Microchip\xc8\v2.00\pic\include\pic16f887.h"
   584                           TMR1 equ 0Eh ;# 
   585  000E                     # 659 "C:\Program Files (x86)\Microchip\xc8\v2.00\pic\include\pic16f887.h"
   586                           TMR1L equ 0Eh ;# 
   587  000E                     # 666 "C:\Program Files (x86)\Microchip\xc8\v2.00\pic\include\pic16f887.h"
   588                           TMR1H equ 0Fh ;# 
   589  000F                     # 673 "C:\Program Files (x86)\Microchip\xc8\v2.00\pic\include\pic16f887.h"
   590                           T1CON equ 010h ;# 
   591  0010                     # 767 "C:\Program Files (x86)\Microchip\xc8\v2.00\pic\include\pic16f887.h"
   592                           TMR2 equ 011h ;# 
   593  0011                     # 774 "C:\Program Files (x86)\Microchip\xc8\v2.00\pic\include\pic16f887.h"
   594                           T2CON equ 012h ;# 
   595  0012                     # 845 "C:\Program Files (x86)\Microchip\xc8\v2.00\pic\include\pic16f887.h"
   596                           SSPBUF equ 013h ;# 
   597  0013                     # 852 "C:\Program Files (x86)\Microchip\xc8\v2.00\pic\include\pic16f887.h"
   598                           SSPCON equ 014h ;# 
   599  0014                     # 922 "C:\Program Files (x86)\Microchip\xc8\v2.00\pic\include\pic16f887.h"
   600                           CCPR1 equ 015h ;# 
   601  0015                     # 929 "C:\Program Files (x86)\Microchip\xc8\v2.00\pic\include\pic16f887.h"
   602                           CCPR1L equ 015h ;# 
   603  0015                     # 936 "C:\Program Files (x86)\Microchip\xc8\v2.00\pic\include\pic16f887.h"
   604                           CCPR1H equ 016h ;# 
   605  0016                     # 943 "C:\Program Files (x86)\Microchip\xc8\v2.00\pic\include\pic16f887.h"
   606                           CCP1CON equ 017h ;# 
   607  0017                     # 1040 "C:\Program Files (x86)\Microchip\xc8\v2.00\pic\include\pic16f887.h"
   608                           RCSTA equ 018h ;# 
   609  0018                     # 1135 "C:\Program Files (x86)\Microchip\xc8\v2.00\pic\include\pic16f887.h"
   610                           TXREG equ 019h ;# 
   611  0019                     # 1142 "C:\Program Files (x86)\Microchip\xc8\v2.00\pic\include\pic16f887.h"
   612                           RCREG equ 01Ah ;# 
   613  001A                     # 1149 "C:\Program Files (x86)\Microchip\xc8\v2.00\pic\include\pic16f887.h"
   614                           CCPR2 equ 01Bh ;# 
   615  001B                     # 1156 "C:\Program Files (x86)\Microchip\xc8\v2.00\pic\include\pic16f887.h"
   616                           CCPR2L equ 01Bh ;# 
   617  001B                     # 1163 "C:\Program Files (x86)\Microchip\xc8\v2.00\pic\include\pic16f887.h"
   618                           CCPR2H equ 01Ch ;# 
   619  001C                     # 1170 "C:\Program Files (x86)\Microchip\xc8\v2.00\pic\include\pic16f887.h"
   620                           CCP2CON equ 01Dh ;# 
   621  001D                     # 1240 "C:\Program Files (x86)\Microchip\xc8\v2.00\pic\include\pic16f887.h"
   622                           ADRESH equ 01Eh ;# 
   623  001E                     # 1247 "C:\Program Files (x86)\Microchip\xc8\v2.00\pic\include\pic16f887.h"
   624                           ADCON0 equ 01Fh ;# 
   625  001F                     # 1348 "C:\Program Files (x86)\Microchip\xc8\v2.00\pic\include\pic16f887.h"
   626                           OPTION_REG equ 081h ;# 
   627  0081                     # 1418 "C:\Program Files (x86)\Microchip\xc8\v2.00\pic\include\pic16f887.h"
   628                           TRISA equ 085h ;# 
   629  0085                     # 1480 "C:\Program Files (x86)\Microchip\xc8\v2.00\pic\include\pic16f887.h"
   630                           TRISB equ 086h ;# 
   631  0086                     # 1542 "C:\Program Files (x86)\Microchip\xc8\v2.00\pic\include\pic16f887.h"
   632                           TRISC equ 087h ;# 
   633  0087                     # 1604 "C:\Program Files (x86)\Microchip\xc8\v2.00\pic\include\pic16f887.h"
   634                           TRISD equ 088h ;# 
   635  0088                     # 1666 "C:\Program Files (x86)\Microchip\xc8\v2.00\pic\include\pic16f887.h"
   636                           TRISE equ 089h ;# 
   637  0089                     # 1704 "C:\Program Files (x86)\Microchip\xc8\v2.00\pic\include\pic16f887.h"
   638                           PIE1 equ 08Ch ;# 
   639  008C                     # 1760 "C:\Program Files (x86)\Microchip\xc8\v2.00\pic\include\pic16f887.h"
   640                           PIE2 equ 08Dh ;# 
   641  008D                     # 1817 "C:\Program Files (x86)\Microchip\xc8\v2.00\pic\include\pic16f887.h"
   642                           PCON equ 08Eh ;# 
   643  008E                     # 1864 "C:\Program Files (x86)\Microchip\xc8\v2.00\pic\include\pic16f887.h"
   644                           OSCCON equ 08Fh ;# 
   645  008F                     # 1929 "C:\Program Files (x86)\Microchip\xc8\v2.00\pic\include\pic16f887.h"
   646                           OSCTUNE equ 090h ;# 
   647  0090                     # 1981 "C:\Program Files (x86)\Microchip\xc8\v2.00\pic\include\pic16f887.h"
   648                           SSPCON2 equ 091h ;# 
   649  0091                     # 2043 "C:\Program Files (x86)\Microchip\xc8\v2.00\pic\include\pic16f887.h"
   650                           PR2 equ 092h ;# 
   651  0092                     # 2050 "C:\Program Files (x86)\Microchip\xc8\v2.00\pic\include\pic16f887.h"
   652                           SSPADD equ 093h ;# 
   653  0093                     # 2057 "C:\Program Files (x86)\Microchip\xc8\v2.00\pic\include\pic16f887.h"
   654                           SSPMSK equ 093h ;# 
   655  0093                     # 2062 "C:\Program Files (x86)\Microchip\xc8\v2.00\pic\include\pic16f887.h"
   656                           MSK equ 093h ;# 
   657  0093                     # 2179 "C:\Program Files (x86)\Microchip\xc8\v2.00\pic\include\pic16f887.h"
   658                           SSPSTAT equ 094h ;# 
   659  0094                     # 2348 "C:\Program Files (x86)\Microchip\xc8\v2.00\pic\include\pic16f887.h"
   660                           WPUB equ 095h ;# 
   661  0095                     # 2418 "C:\Program Files (x86)\Microchip\xc8\v2.00\pic\include\pic16f887.h"
   662                           IOCB equ 096h ;# 
   663  0096                     # 2488 "C:\Program Files (x86)\Microchip\xc8\v2.00\pic\include\pic16f887.h"
   664                           VRCON equ 097h ;# 
   665  0097                     # 2558 "C:\Program Files (x86)\Microchip\xc8\v2.00\pic\include\pic16f887.h"
   666                           TXSTA equ 098h ;# 
   667  0098                     # 2644 "C:\Program Files (x86)\Microchip\xc8\v2.00\pic\include\pic16f887.h"
   668                           SPBRG equ 099h ;# 
   669  0099                     # 2706 "C:\Program Files (x86)\Microchip\xc8\v2.00\pic\include\pic16f887.h"
   670                           SPBRGH equ 09Ah ;# 
   671  009A                     # 2776 "C:\Program Files (x86)\Microchip\xc8\v2.00\pic\include\pic16f887.h"
   672                           PWM1CON equ 09Bh ;# 
   673  009B                     # 2846 "C:\Program Files (x86)\Microchip\xc8\v2.00\pic\include\pic16f887.h"
   674                           ECCPAS equ 09Ch ;# 
   675  009C                     # 2928 "C:\Program Files (x86)\Microchip\xc8\v2.00\pic\include\pic16f887.h"
   676                           PSTRCON equ 09Dh ;# 
   677  009D                     # 2972 "C:\Program Files (x86)\Microchip\xc8\v2.00\pic\include\pic16f887.h"
   678                           ADRESL equ 09Eh ;# 
   679  009E                     # 2979 "C:\Program Files (x86)\Microchip\xc8\v2.00\pic\include\pic16f887.h"
   680                           ADCON1 equ 09Fh ;# 
   681  009F                     # 3013 "C:\Program Files (x86)\Microchip\xc8\v2.00\pic\include\pic16f887.h"
   682                           WDTCON equ 0105h ;# 
   683  0105                     # 3066 "C:\Program Files (x86)\Microchip\xc8\v2.00\pic\include\pic16f887.h"
   684                           CM1CON0 equ 0107h ;# 
   685  0107                     # 3131 "C:\Program Files (x86)\Microchip\xc8\v2.00\pic\include\pic16f887.h"
   686                           CM2CON0 equ 0108h ;# 
   687  0108                     # 3196 "C:\Program Files (x86)\Microchip\xc8\v2.00\pic\include\pic16f887.h"
   688                           CM2CON1 equ 0109h ;# 
   689  0109                     # 3247 "C:\Program Files (x86)\Microchip\xc8\v2.00\pic\include\pic16f887.h"
   690                           EEDATA equ 010Ch ;# 
   691  010C                     # 3252 "C:\Program Files (x86)\Microchip\xc8\v2.00\pic\include\pic16f887.h"
   692                           EEDAT equ 010Ch ;# 
   693  010C                     # 3259 "C:\Program Files (x86)\Microchip\xc8\v2.00\pic\include\pic16f887.h"
   694                           EEADR equ 010Dh ;# 
   695  010D                     # 3266 "C:\Program Files (x86)\Microchip\xc8\v2.00\pic\include\pic16f887.h"
   696                           EEDATH equ 010Eh ;# 
   697  010E                     # 3273 "C:\Program Files (x86)\Microchip\xc8\v2.00\pic\include\pic16f887.h"
   698                           EEADRH equ 010Fh ;# 
   699  010F                     # 3280 "C:\Program Files (x86)\Microchip\xc8\v2.00\pic\include\pic16f887.h"
   700                           SRCON equ 0185h ;# 
   701  0185                     # 3337 "C:\Program Files (x86)\Microchip\xc8\v2.00\pic\include\pic16f887.h"
   702                           BAUDCTL equ 0187h ;# 
   703  0187                     # 3389 "C:\Program Files (x86)\Microchip\xc8\v2.00\pic\include\pic16f887.h"
   704                           ANSEL equ 0188h ;# 
   705  0188                     # 3451 "C:\Program Files (x86)\Microchip\xc8\v2.00\pic\include\pic16f887.h"
   706                           ANSELH equ 0189h ;# 
   707  0189                     # 3501 "C:\Program Files (x86)\Microchip\xc8\v2.00\pic\include\pic16f887.h"
   708                           EECON1 equ 018Ch ;# 
   709  018C                     # 3546 "C:\Program Files (x86)\Microchip\xc8\v2.00\pic\include\pic16f887.h"
   710                           EECON2 equ 018Dh ;# 
   711  018D                     # 54 "C:\Program Files (x86)\Microchip\xc8\v2.00\pic\include\pic16f887.h"
   712                           INDF equ 00h ;# 
   713  0000                     # 61 "C:\Program Files (x86)\Microchip\xc8\v2.00\pic\include\pic16f887.h"
   714                           TMR0 equ 01h ;# 
   715  0001                     # 68 "C:\Program Files (x86)\Microchip\xc8\v2.00\pic\include\pic16f887.h"
   716                           PCL equ 02h ;# 
   717  0002                     # 75 "C:\Program Files (x86)\Microchip\xc8\v2.00\pic\include\pic16f887.h"
   718                           STATUS equ 03h ;# 
   719  0003                     # 161 "C:\Program Files (x86)\Microchip\xc8\v2.00\pic\include\pic16f887.h"
   720                           FSR equ 04h ;# 
   721  0004                     # 168 "C:\Program Files (x86)\Microchip\xc8\v2.00\pic\include\pic16f887.h"
   722                           PORTA equ 05h ;# 
   723  0005                     # 230 "C:\Program Files (x86)\Microchip\xc8\v2.00\pic\include\pic16f887.h"
   724                           PORTB equ 06h ;# 
   725  0006                     # 292 "C:\Program Files (x86)\Microchip\xc8\v2.00\pic\include\pic16f887.h"
   726                           PORTC equ 07h ;# 
   727  0007                     # 354 "C:\Program Files (x86)\Microchip\xc8\v2.00\pic\include\pic16f887.h"
   728                           PORTD equ 08h ;# 
   729  0008                     # 416 "C:\Program Files (x86)\Microchip\xc8\v2.00\pic\include\pic16f887.h"
   730                           PORTE equ 09h ;# 
   731  0009                     # 454 "C:\Program Files (x86)\Microchip\xc8\v2.00\pic\include\pic16f887.h"
   732                           PCLATH equ 0Ah ;# 
   733  000A                     # 461 "C:\Program Files (x86)\Microchip\xc8\v2.00\pic\include\pic16f887.h"
   734                           INTCON equ 0Bh ;# 
   735  000B                     # 539 "C:\Program Files (x86)\Microchip\xc8\v2.00\pic\include\pic16f887.h"
   736                           PIR1 equ 0Ch ;# 
   737  000C                     # 595 "C:\Program Files (x86)\Microchip\xc8\v2.00\pic\include\pic16f887.h"
   738                           PIR2 equ 0Dh ;# 
   739  000D                     # 652 "C:\Program Files (x86)\Microchip\xc8\v2.00\pic\include\pic16f887.h"
   740                           TMR1 equ 0Eh ;# 
   741  000E                     # 659 "C:\Program Files (x86)\Microchip\xc8\v2.00\pic\include\pic16f887.h"
   742                           TMR1L equ 0Eh ;# 
   743  000E                     # 666 "C:\Program Files (x86)\Microchip\xc8\v2.00\pic\include\pic16f887.h"
   744                           TMR1H equ 0Fh ;# 
   745  000F                     # 673 "C:\Program Files (x86)\Microchip\xc8\v2.00\pic\include\pic16f887.h"
   746                           T1CON equ 010h ;# 
   747  0010                     # 767 "C:\Program Files (x86)\Microchip\xc8\v2.00\pic\include\pic16f887.h"
   748                           TMR2 equ 011h ;# 
   749  0011                     # 774 "C:\Program Files (x86)\Microchip\xc8\v2.00\pic\include\pic16f887.h"
   750                           T2CON equ 012h ;# 
   751  0012                     # 845 "C:\Program Files (x86)\Microchip\xc8\v2.00\pic\include\pic16f887.h"
   752                           SSPBUF equ 013h ;# 
   753  0013                     # 852 "C:\Program Files (x86)\Microchip\xc8\v2.00\pic\include\pic16f887.h"
   754                           SSPCON equ 014h ;# 
   755  0014                     # 922 "C:\Program Files (x86)\Microchip\xc8\v2.00\pic\include\pic16f887.h"
   756                           CCPR1 equ 015h ;# 
   757  0015                     # 929 "C:\Program Files (x86)\Microchip\xc8\v2.00\pic\include\pic16f887.h"
   758                           CCPR1L equ 015h ;# 
   759  0015                     # 936 "C:\Program Files (x86)\Microchip\xc8\v2.00\pic\include\pic16f887.h"
   760                           CCPR1H equ 016h ;# 
   761  0016                     # 943 "C:\Program Files (x86)\Microchip\xc8\v2.00\pic\include\pic16f887.h"
   762                           CCP1CON equ 017h ;# 
   763  0017                     # 1040 "C:\Program Files (x86)\Microchip\xc8\v2.00\pic\include\pic16f887.h"
   764                           RCSTA equ 018h ;# 
   765  0018                     # 1135 "C:\Program Files (x86)\Microchip\xc8\v2.00\pic\include\pic16f887.h"
   766                           TXREG equ 019h ;# 
   767  0019                     # 1142 "C:\Program Files (x86)\Microchip\xc8\v2.00\pic\include\pic16f887.h"
   768                           RCREG equ 01Ah ;# 
   769  001A                     # 1149 "C:\Program Files (x86)\Microchip\xc8\v2.00\pic\include\pic16f887.h"
   770                           CCPR2 equ 01Bh ;# 
   771  001B                     # 1156 "C:\Program Files (x86)\Microchip\xc8\v2.00\pic\include\pic16f887.h"
   772                           CCPR2L equ 01Bh ;# 
   773  001B                     # 1163 "C:\Program Files (x86)\Microchip\xc8\v2.00\pic\include\pic16f887.h"
   774                           CCPR2H equ 01Ch ;# 
   775  001C                     # 1170 "C:\Program Files (x86)\Microchip\xc8\v2.00\pic\include\pic16f887.h"
   776                           CCP2CON equ 01Dh ;# 
   777  001D                     # 1240 "C:\Program Files (x86)\Microchip\xc8\v2.00\pic\include\pic16f887.h"
   778                           ADRESH equ 01Eh ;# 
   779  001E                     # 1247 "C:\Program Files (x86)\Microchip\xc8\v2.00\pic\include\pic16f887.h"
   780                           ADCON0 equ 01Fh ;# 
   781  001F                     # 1348 "C:\Program Files (x86)\Microchip\xc8\v2.00\pic\include\pic16f887.h"
   782                           OPTION_REG equ 081h ;# 
   783  0081                     # 1418 "C:\Program Files (x86)\Microchip\xc8\v2.00\pic\include\pic16f887.h"
   784                           TRISA equ 085h ;# 
   785  0085                     # 1480 "C:\Program Files (x86)\Microchip\xc8\v2.00\pic\include\pic16f887.h"
   786                           TRISB equ 086h ;# 
   787  0086                     # 1542 "C:\Program Files (x86)\Microchip\xc8\v2.00\pic\include\pic16f887.h"
   788                           TRISC equ 087h ;# 
   789  0087                     # 1604 "C:\Program Files (x86)\Microchip\xc8\v2.00\pic\include\pic16f887.h"
   790                           TRISD equ 088h ;# 
   791  0088                     # 1666 "C:\Program Files (x86)\Microchip\xc8\v2.00\pic\include\pic16f887.h"
   792                           TRISE equ 089h ;# 
   793  0089                     # 1704 "C:\Program Files (x86)\Microchip\xc8\v2.00\pic\include\pic16f887.h"
   794                           PIE1 equ 08Ch ;# 
   795  008C                     # 1760 "C:\Program Files (x86)\Microchip\xc8\v2.00\pic\include\pic16f887.h"
   796                           PIE2 equ 08Dh ;# 
   797  008D                     # 1817 "C:\Program Files (x86)\Microchip\xc8\v2.00\pic\include\pic16f887.h"
   798                           PCON equ 08Eh ;# 
   799  008E                     # 1864 "C:\Program Files (x86)\Microchip\xc8\v2.00\pic\include\pic16f887.h"
   800                           OSCCON equ 08Fh ;# 
   801  008F                     # 1929 "C:\Program Files (x86)\Microchip\xc8\v2.00\pic\include\pic16f887.h"
   802                           OSCTUNE equ 090h ;# 
   803  0090                     # 1981 "C:\Program Files (x86)\Microchip\xc8\v2.00\pic\include\pic16f887.h"
   804                           SSPCON2 equ 091h ;# 
   805  0091                     # 2043 "C:\Program Files (x86)\Microchip\xc8\v2.00\pic\include\pic16f887.h"
   806                           PR2 equ 092h ;# 
   807  0092                     # 2050 "C:\Program Files (x86)\Microchip\xc8\v2.00\pic\include\pic16f887.h"
   808                           SSPADD equ 093h ;# 
   809  0093                     # 2057 "C:\Program Files (x86)\Microchip\xc8\v2.00\pic\include\pic16f887.h"
   810                           SSPMSK equ 093h ;# 
   811  0093                     # 2062 "C:\Program Files (x86)\Microchip\xc8\v2.00\pic\include\pic16f887.h"
   812                           MSK equ 093h ;# 
   813  0093                     # 2179 "C:\Program Files (x86)\Microchip\xc8\v2.00\pic\include\pic16f887.h"
   814                           SSPSTAT equ 094h ;# 
   815  0094                     # 2348 "C:\Program Files (x86)\Microchip\xc8\v2.00\pic\include\pic16f887.h"
   816                           WPUB equ 095h ;# 
   817  0095                     # 2418 "C:\Program Files (x86)\Microchip\xc8\v2.00\pic\include\pic16f887.h"
   818                           IOCB equ 096h ;# 
   819  0096                     # 2488 "C:\Program Files (x86)\Microchip\xc8\v2.00\pic\include\pic16f887.h"
   820                           VRCON equ 097h ;# 
   821  0097                     # 2558 "C:\Program Files (x86)\Microchip\xc8\v2.00\pic\include\pic16f887.h"
   822                           TXSTA equ 098h ;# 
   823  0098                     # 2644 "C:\Program Files (x86)\Microchip\xc8\v2.00\pic\include\pic16f887.h"
   824                           SPBRG equ 099h ;# 
   825  0099                     # 2706 "C:\Program Files (x86)\Microchip\xc8\v2.00\pic\include\pic16f887.h"
   826                           SPBRGH equ 09Ah ;# 
   827  009A                     # 2776 "C:\Program Files (x86)\Microchip\xc8\v2.00\pic\include\pic16f887.h"
   828                           PWM1CON equ 09Bh ;# 
   829  009B                     # 2846 "C:\Program Files (x86)\Microchip\xc8\v2.00\pic\include\pic16f887.h"
   830                           ECCPAS equ 09Ch ;# 
   831  009C                     # 2928 "C:\Program Files (x86)\Microchip\xc8\v2.00\pic\include\pic16f887.h"
   832                           PSTRCON equ 09Dh ;# 
   833  009D                     # 2972 "C:\Program Files (x86)\Microchip\xc8\v2.00\pic\include\pic16f887.h"
   834                           ADRESL equ 09Eh ;# 
   835  009E                     # 2979 "C:\Program Files (x86)\Microchip\xc8\v2.00\pic\include\pic16f887.h"
   836                           ADCON1 equ 09Fh ;# 
   837  009F                     # 3013 "C:\Program Files (x86)\Microchip\xc8\v2.00\pic\include\pic16f887.h"
   838                           WDTCON equ 0105h ;# 
   839  0105                     # 3066 "C:\Program Files (x86)\Microchip\xc8\v2.00\pic\include\pic16f887.h"
   840                           CM1CON0 equ 0107h ;# 
   841  0107                     # 3131 "C:\Program Files (x86)\Microchip\xc8\v2.00\pic\include\pic16f887.h"
   842                           CM2CON0 equ 0108h ;# 
   843  0108                     # 3196 "C:\Program Files (x86)\Microchip\xc8\v2.00\pic\include\pic16f887.h"
   844                           CM2CON1 equ 0109h ;# 
   845  0109                     # 3247 "C:\Program Files (x86)\Microchip\xc8\v2.00\pic\include\pic16f887.h"
   846                           EEDATA equ 010Ch ;# 
   847  010C                     # 3252 "C:\Program Files (x86)\Microchip\xc8\v2.00\pic\include\pic16f887.h"
   848                           EEDAT equ 010Ch ;# 
   849  010C                     # 3259 "C:\Program Files (x86)\Microchip\xc8\v2.00\pic\include\pic16f887.h"
   850                           EEADR equ 010Dh ;# 
   851  010D                     # 3266 "C:\Program Files (x86)\Microchip\xc8\v2.00\pic\include\pic16f887.h"
   852                           EEDATH equ 010Eh ;# 
   853  010E                     # 3273 "C:\Program Files (x86)\Microchip\xc8\v2.00\pic\include\pic16f887.h"
   854                           EEADRH equ 010Fh ;# 
   855  010F                     # 3280 "C:\Program Files (x86)\Microchip\xc8\v2.00\pic\include\pic16f887.h"
   856                           SRCON equ 0185h ;# 
   857  0185                     # 3337 "C:\Program Files (x86)\Microchip\xc8\v2.00\pic\include\pic16f887.h"
   858                           BAUDCTL equ 0187h ;# 
   859  0187                     # 3389 "C:\Program Files (x86)\Microchip\xc8\v2.00\pic\include\pic16f887.h"
   860                           ANSEL equ 0188h ;# 
   861  0188                     # 3451 "C:\Program Files (x86)\Microchip\xc8\v2.00\pic\include\pic16f887.h"
   862                           ANSELH equ 0189h ;# 
   863  0189                     # 3501 "C:\Program Files (x86)\Microchip\xc8\v2.00\pic\include\pic16f887.h"
   864                           EECON1 equ 018Ch ;# 
   865  018C                     # 3546 "C:\Program Files (x86)\Microchip\xc8\v2.00\pic\include\pic16f887.h"
   866                           EECON2 equ 018Dh ;# 
   867  018D                     	FNCALL	_main,_activateSelectedRelay
   868                           	FNCALL	_main,_config
   869                           	FNCALL	_main,_spiWrite
   870                           	FNCALL	_main,_write_volume
   871                           	FNCALL	_write_volume,_spiWrite
   872                           	FNCALL	_write_volume,_white_space
   873                           	FNCALL	_white_space,_spiWrite
   874                           	FNROOT	_main
   875                           	FNCALL	intlevel1,_isr
   876                           	global	intlevel1
   877                           	FNROOT	intlevel1
   878                           	global	_font
   879                           psect	stringtext,class=STRCODE,delta=2,reloc=256,noexec
   880                           global __pstringtext
   881                           __pstringtext:
   882  0000'                    stringtab:
   883  0000'                    	global    __stringtab
   884                           __stringtab:
   885  0000'                    ;	String table - string pointers are 2 bytes each
   886                           	btfsc	(btemp+1),7
   887  0000' 1BFF               	ljmp	stringcode
   888  0001' 2800'              	bcf	status,7
   889  0002' 1383               	btfsc	(btemp+1),0
   890  0003' 187F               	bsf	status,7
   891  0004' 1783               	movf	indf,w
   892  0005' 0800               	incf fsr
   893  0006' 0A84               skipnz
   894  0007' 1903               incf btemp+1
   895  0008' 0AFF               	return
   896  0009' 0008               stringcode:
   897  000A'                    	movf btemp+1,w
   898  000A' 087F               andlw 7Fh
   899  000B' 397F               movwf	pclath
   900  000C' 008A               	movf	fsr,w
   901  000D' 0804               incf fsr
   902  000E' 0A84               skipnz
   903  000F' 1903               incf btemp+1
   904  0010' 0AFF               	movwf pc
   905  0011' 0082               	global __stringbase
   906                           __stringbase:
   907  0012'                    	global    __end_of__stringtab
   908                           __end_of__stringtab:
   909  0012'                    	file	"./Font.h"
   910                           	line	4
   911                           _font:
   912  0012'                    	retlw	03Eh
   913  0012' 343E               	retlw	0
   914  0013' 3400               
   915                           	retlw	051h
   916  0014' 3451               	retlw	0
   917  0015' 3400               
   918                           	retlw	049h
   919  0016' 3449               	retlw	0
   920  0017' 3400               
   921                           	retlw	045h
   922  0018' 3445               	retlw	0
   923  0019' 3400               
   924                           	retlw	03Eh
   925  001A' 343E               	retlw	0
   926  001B' 3400               
   927                           	retlw	low(0)
   928  001C' 3400               	retlw	high(0)
   929  001D' 3400               
   930                           	retlw	042h
   931  001E' 3442               	retlw	0
   932  001F' 3400               
   933                           	retlw	07Fh
   934  0020' 347F               	retlw	0
   935  0021' 3400               
   936                           	retlw	040h
   937  0022' 3440               	retlw	0
   938  0023' 3400               
   939                           	retlw	low(0)
   940  0024' 3400               	retlw	high(0)
   941  0025' 3400               
   942                           	retlw	042h
   943  0026' 3442               	retlw	0
   944  0027' 3400               
   945                           	retlw	061h
   946  0028' 3461               	retlw	0
   947  0029' 3400               
   948                           	retlw	051h
   949  002A' 3451               	retlw	0
   950  002B' 3400               
   951                           	retlw	049h
   952  002C' 3449               	retlw	0
   953  002D' 3400               
   954                           	retlw	046h
   955  002E' 3446               	retlw	0
   956  002F' 3400               
   957                           	retlw	021h
   958  0030' 3421               	retlw	0
   959  0031' 3400               
   960                           	retlw	041h
   961  0032' 3441               	retlw	0
   962  0033' 3400               
   963                           	retlw	045h
   964  0034' 3445               	retlw	0
   965  0035' 3400               
   966                           	retlw	04Bh
   967  0036' 344B               	retlw	0
   968  0037' 3400               
   969                           	retlw	031h
   970  0038' 3431               	retlw	0
   971  0039' 3400               
   972                           	retlw	018h
   973  003A' 3418               	retlw	0
   974  003B' 3400               
   975                           	retlw	014h
   976  003C' 3414               	retlw	0
   977  003D' 3400               
   978                           	retlw	012h
   979  003E' 3412               	retlw	0
   980  003F' 3400               
   981                           	retlw	07Fh
   982  0040' 347F               	retlw	0
   983  0041' 3400               
   984                           	retlw	010h
   985  0042' 3410               	retlw	0
   986  0043' 3400               
   987                           	retlw	027h
   988  0044' 3427               	retlw	0
   989  0045' 3400               
   990                           	retlw	045h
   991  0046' 3445               	retlw	0
   992  0047' 3400               
   993                           	retlw	045h
   994  0048' 3445               	retlw	0
   995  0049' 3400               
   996                           	retlw	045h
   997  004A' 3445               	retlw	0
   998  004B' 3400               
   999                           	retlw	039h
  1000  004C' 3439               	retlw	0
  1001  004D' 3400               
  1002                           	retlw	03Ch
  1003  004E' 343C               	retlw	0
  1004  004F' 3400               
  1005                           	retlw	04Ah
  1006  0050' 344A               	retlw	0
  1007  0051' 3400               
  1008                           	retlw	049h
  1009  0052' 3449               	retlw	0
  1010  0053' 3400               
  1011                           	retlw	049h
  1012  0054' 3449               	retlw	0
  1013  0055' 3400               
  1014                           	retlw	030h
  1015  0056' 3430               	retlw	0
  1016  0057' 3400               
  1017                           	retlw	01h
  1018  0058' 3401               	retlw	0
  1019  0059' 3400               
  1020                           	retlw	071h
  1021  005A' 3471               	retlw	0
  1022  005B' 3400               
  1023                           	retlw	09h
  1024  005C' 3409               	retlw	0
  1025  005D' 3400               
  1026                           	retlw	05h
  1027  005E' 3405               	retlw	0
  1028  005F' 3400               
  1029                           	retlw	03h
  1030  0060' 3403               	retlw	0
  1031  0061' 3400               
  1032                           	retlw	036h
  1033  0062' 3436               	retlw	0
  1034  0063' 3400               
  1035                           	retlw	049h
  1036  0064' 3449               	retlw	0
  1037  0065' 3400               
  1038                           	retlw	049h
  1039  0066' 3449               	retlw	0
  1040  0067' 3400               
  1041                           	retlw	049h
  1042  0068' 3449               	retlw	0
  1043  0069' 3400               
  1044                           	retlw	036h
  1045  006A' 3436               	retlw	0
  1046  006B' 3400               
  1047                           	retlw	06h
  1048  006C' 3406               	retlw	0
  1049  006D' 3400               
  1050                           	retlw	049h
  1051  006E' 3449               	retlw	0
  1052  006F' 3400               
  1053                           	retlw	049h
  1054  0070' 3449               	retlw	0
  1055  0071' 3400               
  1056                           	retlw	029h
  1057  0072' 3429               	retlw	0
  1058  0073' 3400               
  1059                           	retlw	01Eh
  1060  0074' 341E               	retlw	0
  1061  0075' 3400               
  1062                           	retlw	07Eh
  1063  0076' 347E               	retlw	0
  1064  0077' 3400               
  1065                           	retlw	011h
  1066  0078' 3411               	retlw	0
  1067  0079' 3400               
  1068                           	retlw	011h
  1069  007A' 3411               	retlw	0
  1070  007B' 3400               
  1071                           	retlw	011h
  1072  007C' 3411               	retlw	0
  1073  007D' 3400               
  1074                           	retlw	07Eh
  1075  007E' 347E               	retlw	0
  1076  007F' 3400               
  1077                           	retlw	07Fh
  1078  0080' 347F               	retlw	0
  1079  0081' 3400               
  1080                           	retlw	049h
  1081  0082' 3449               	retlw	0
  1082  0083' 3400               
  1083                           	retlw	049h
  1084  0084' 3449               	retlw	0
  1085  0085' 3400               
  1086                           	retlw	049h
  1087  0086' 3449               	retlw	0
  1088  0087' 3400               
  1089                           	retlw	036h
  1090  0088' 3436               	retlw	0
  1091  0089' 3400               
  1092                           	retlw	03Eh
  1093  008A' 343E               	retlw	0
  1094  008B' 3400               
  1095                           	retlw	041h
  1096  008C' 3441               	retlw	0
  1097  008D' 3400               
  1098                           	retlw	041h
  1099  008E' 3441               	retlw	0
  1100  008F' 3400               
  1101                           	retlw	041h
  1102  0090' 3441               	retlw	0
  1103  0091' 3400               
  1104                           	retlw	022h
  1105  0092' 3422               	retlw	0
  1106  0093' 3400               
  1107                           	retlw	07Fh
  1108  0094' 347F               	retlw	0
  1109  0095' 3400               
  1110                           	retlw	041h
  1111  0096' 3441               	retlw	0
  1112  0097' 3400               
  1113                           	retlw	041h
  1114  0098' 3441               	retlw	0
  1115  0099' 3400               
  1116                           	retlw	022h
  1117  009A' 3422               	retlw	0
  1118  009B' 3400               
  1119                           	retlw	01Ch
  1120  009C' 341C               	retlw	0
  1121  009D' 3400               
  1122                           	retlw	07Fh
  1123  009E' 347F               	retlw	0
  1124  009F' 3400               
  1125                           	retlw	049h
  1126  00A0' 3449               	retlw	0
  1127  00A1' 3400               
  1128                           	retlw	049h
  1129  00A2' 3449               	retlw	0
  1130  00A3' 3400               
  1131                           	retlw	049h
  1132  00A4' 3449               	retlw	0
  1133  00A5' 3400               
  1134                           	retlw	041h
  1135  00A6' 3441               	retlw	0
  1136  00A7' 3400               
  1137                           	retlw	07Fh
  1138  00A8' 347F               	retlw	0
  1139  00A9' 3400               
  1140                           	retlw	09h
  1141  00AA' 3409               	retlw	0
  1142  00AB' 3400               
  1143                           	retlw	09h
  1144  00AC' 3409               	retlw	0
  1145  00AD' 3400               
  1146                           	retlw	01h
  1147  00AE' 3401               	retlw	0
  1148  00AF' 3400               
  1149                           	retlw	01h
  1150  00B0' 3401               	retlw	0
  1151  00B1' 3400               
  1152                           	retlw	03Eh
  1153  00B2' 343E               	retlw	0
  1154  00B3' 3400               
  1155                           	retlw	041h
  1156  00B4' 3441               	retlw	0
  1157  00B5' 3400               
  1158                           	retlw	041h
  1159  00B6' 3441               	retlw	0
  1160  00B7' 3400               
  1161                           	retlw	051h
  1162  00B8' 3451               	retlw	0
  1163  00B9' 3400               
  1164                           	retlw	032h
  1165  00BA' 3432               	retlw	0
  1166  00BB' 3400               
  1167                           	retlw	07Fh
  1168  00BC' 347F               	retlw	0
  1169  00BD' 3400               
  1170                           	retlw	08h
  1171  00BE' 3408               	retlw	0
  1172  00BF' 3400               
  1173                           	retlw	08h
  1174  00C0' 3408               	retlw	0
  1175  00C1' 3400               
  1176                           	retlw	08h
  1177  00C2' 3408               	retlw	0
  1178  00C3' 3400               
  1179                           	retlw	07Fh
  1180  00C4' 347F               	retlw	0
  1181  00C5' 3400               
  1182                           	retlw	low(0)
  1183  00C6' 3400               	retlw	high(0)
  1184  00C7' 3400               
  1185                           	retlw	041h
  1186  00C8' 3441               	retlw	0
  1187  00C9' 3400               
  1188                           	retlw	07Fh
  1189  00CA' 347F               	retlw	0
  1190  00CB' 3400               
  1191                           	retlw	041h
  1192  00CC' 3441               	retlw	0
  1193  00CD' 3400               
  1194                           	retlw	low(0)
  1195  00CE' 3400               	retlw	high(0)
  1196  00CF' 3400               
  1197                           	retlw	020h
  1198  00D0' 3420               	retlw	0
  1199  00D1' 3400               
  1200                           	retlw	040h
  1201  00D2' 3440               	retlw	0
  1202  00D3' 3400               
  1203                           	retlw	041h
  1204  00D4' 3441               	retlw	0
  1205  00D5' 3400               
  1206                           	retlw	03Fh
  1207  00D6' 343F               	retlw	0
  1208  00D7' 3400               
  1209                           	retlw	01h
  1210  00D8' 3401               	retlw	0
  1211  00D9' 3400               
  1212                           	retlw	07Fh
  1213  00DA' 347F               	retlw	0
  1214  00DB' 3400               
  1215                           	retlw	08h
  1216  00DC' 3408               	retlw	0
  1217  00DD' 3400               
  1218                           	retlw	014h
  1219  00DE' 3414               	retlw	0
  1220  00DF' 3400               
  1221                           	retlw	022h
  1222  00E0' 3422               	retlw	0
  1223  00E1' 3400               
  1224                           	retlw	041h
  1225  00E2' 3441               	retlw	0
  1226  00E3' 3400               
  1227                           	retlw	07Fh
  1228  00E4' 347F               	retlw	0
  1229  00E5' 3400               
  1230                           	retlw	040h
  1231  00E6' 3440               	retlw	0
  1232  00E7' 3400               
  1233                           	retlw	040h
  1234  00E8' 3440               	retlw	0
  1235  00E9' 3400               
  1236                           	retlw	040h
  1237  00EA' 3440               	retlw	0
  1238  00EB' 3400               
  1239                           	retlw	040h
  1240  00EC' 3440               	retlw	0
  1241  00ED' 3400               
  1242                           	retlw	07Fh
  1243  00EE' 347F               	retlw	0
  1244  00EF' 3400               
  1245                           	retlw	02h
  1246  00F0' 3402               	retlw	0
  1247  00F1' 3400               
  1248                           	retlw	04h
  1249  00F2' 3404               	retlw	0
  1250  00F3' 3400               
  1251                           	retlw	02h
  1252  00F4' 3402               	retlw	0
  1253  00F5' 3400               
  1254                           	retlw	07Fh
  1255  00F6' 347F               	retlw	0
  1256  00F7' 3400               
  1257                           	retlw	07Fh
  1258  00F8' 347F               	retlw	0
  1259  00F9' 3400               
  1260                           	retlw	04h
  1261  00FA' 3404               	retlw	0
  1262  00FB' 3400               
  1263                           	retlw	08h
  1264  00FC' 3408               	retlw	0
  1265  00FD' 3400               
  1266                           	retlw	010h
  1267  00FE' 3410               	retlw	0
  1268  00FF' 3400               
  1269                           	retlw	07Fh
  1270  0100' 347F               	retlw	0
  1271  0101' 3400               
  1272                           	retlw	03Eh
  1273  0102' 343E               	retlw	0
  1274  0103' 3400               
  1275                           	retlw	041h
  1276  0104' 3441               	retlw	0
  1277  0105' 3400               
  1278                           	retlw	041h
  1279  0106' 3441               	retlw	0
  1280  0107' 3400               
  1281                           	retlw	041h
  1282  0108' 3441               	retlw	0
  1283  0109' 3400               
  1284                           	retlw	03Eh
  1285  010A' 343E               	retlw	0
  1286  010B' 3400               
  1287                           	retlw	07Fh
  1288  010C' 347F               	retlw	0
  1289  010D' 3400               
  1290                           	retlw	09h
  1291  010E' 3409               	retlw	0
  1292  010F' 3400               
  1293                           	retlw	09h
  1294  0110' 3409               	retlw	0
  1295  0111' 3400               
  1296                           	retlw	09h
  1297  0112' 3409               	retlw	0
  1298  0113' 3400               
  1299                           	retlw	06h
  1300  0114' 3406               	retlw	0
  1301  0115' 3400               
  1302                           	retlw	03Eh
  1303  0116' 343E               	retlw	0
  1304  0117' 3400               
  1305                           	retlw	041h
  1306  0118' 3441               	retlw	0
  1307  0119' 3400               
  1308                           	retlw	051h
  1309  011A' 3451               	retlw	0
  1310  011B' 3400               
  1311                           	retlw	021h
  1312  011C' 3421               	retlw	0
  1313  011D' 3400               
  1314                           	retlw	05Eh
  1315  011E' 345E               	retlw	0
  1316  011F' 3400               
  1317                           	retlw	07Fh
  1318  0120' 347F               	retlw	0
  1319  0121' 3400               
  1320                           	retlw	09h
  1321  0122' 3409               	retlw	0
  1322  0123' 3400               
  1323                           	retlw	019h
  1324  0124' 3419               	retlw	0
  1325  0125' 3400               
  1326                           	retlw	029h
  1327  0126' 3429               	retlw	0
  1328  0127' 3400               
  1329                           	retlw	046h
  1330  0128' 3446               	retlw	0
  1331  0129' 3400               
  1332                           	retlw	046h
  1333  012A' 3446               	retlw	0
  1334  012B' 3400               
  1335                           	retlw	049h
  1336  012C' 3449               	retlw	0
  1337  012D' 3400               
  1338                           	retlw	049h
  1339  012E' 3449               	retlw	0
  1340  012F' 3400               
  1341                           	retlw	049h
  1342  0130' 3449               	retlw	0
  1343  0131' 3400               
  1344                           	retlw	031h
  1345  0132' 3431               	retlw	0
  1346  0133' 3400               
  1347                           	retlw	01h
  1348  0134' 3401               	retlw	0
  1349  0135' 3400               
  1350                           	retlw	01h
  1351  0136' 3401               	retlw	0
  1352  0137' 3400               
  1353                           	retlw	07Fh
  1354  0138' 347F               	retlw	0
  1355  0139' 3400               
  1356                           	retlw	01h
  1357  013A' 3401               	retlw	0
  1358  013B' 3400               
  1359                           	retlw	01h
  1360  013C' 3401               	retlw	0
  1361  013D' 3400               
  1362                           	retlw	03Fh
  1363  013E' 343F               	retlw	0
  1364  013F' 3400               
  1365                           	retlw	040h
  1366  0140' 3440               	retlw	0
  1367  0141' 3400               
  1368                           	retlw	040h
  1369  0142' 3440               	retlw	0
  1370  0143' 3400               
  1371                           	retlw	040h
  1372  0144' 3440               	retlw	0
  1373  0145' 3400               
  1374                           	retlw	03Fh
  1375  0146' 343F               	retlw	0
  1376  0147' 3400               
  1377                           	retlw	01Fh
  1378  0148' 341F               	retlw	0
  1379  0149' 3400               
  1380                           	retlw	020h
  1381  014A' 3420               	retlw	0
  1382  014B' 3400               
  1383                           	retlw	040h
  1384  014C' 3440               	retlw	0
  1385  014D' 3400               
  1386                           	retlw	020h
  1387  014E' 3420               	retlw	0
  1388  014F' 3400               
  1389                           	retlw	01Fh
  1390  0150' 341F               	retlw	0
  1391  0151' 3400               
  1392                           	retlw	07Fh
  1393  0152' 347F               	retlw	0
  1394  0153' 3400               
  1395                           	retlw	020h
  1396  0154' 3420               	retlw	0
  1397  0155' 3400               
  1398                           	retlw	018h
  1399  0156' 3418               	retlw	0
  1400  0157' 3400               
  1401                           	retlw	020h
  1402  0158' 3420               	retlw	0
  1403  0159' 3400               
  1404                           	retlw	07Fh
  1405  015A' 347F               	retlw	0
  1406  015B' 3400               
  1407                           	retlw	063h
  1408  015C' 3463               	retlw	0
  1409  015D' 3400               
  1410                           	retlw	014h
  1411  015E' 3414               	retlw	0
  1412  015F' 3400               
  1413                           	retlw	08h
  1414  0160' 3408               	retlw	0
  1415  0161' 3400               
  1416                           	retlw	014h
  1417  0162' 3414               	retlw	0
  1418  0163' 3400               
  1419                           	retlw	063h
  1420  0164' 3463               	retlw	0
  1421  0165' 3400               
  1422                           	retlw	03h
  1423  0166' 3403               	retlw	0
  1424  0167' 3400               
  1425                           	retlw	04h
  1426  0168' 3404               	retlw	0
  1427  0169' 3400               
  1428                           	retlw	078h
  1429  016A' 3478               	retlw	0
  1430  016B' 3400               
  1431                           	retlw	04h
  1432  016C' 3404               	retlw	0
  1433  016D' 3400               
  1434                           	retlw	03h
  1435  016E' 3403               	retlw	0
  1436  016F' 3400               
  1437                           	retlw	061h
  1438  0170' 3461               	retlw	0
  1439  0171' 3400               
  1440                           	retlw	051h
  1441  0172' 3451               	retlw	0
  1442  0173' 3400               
  1443                           	retlw	049h
  1444  0174' 3449               	retlw	0
  1445  0175' 3400               
  1446                           	retlw	045h
  1447  0176' 3445               	retlw	0
  1448  0177' 3400               
  1449                           	retlw	043h
  1450  0178' 3443               	retlw	0
  1451  0179' 3400               
  1452                           	retlw	low(0)
  1453  017A' 3400               	retlw	high(0)
  1454  017B' 3400               
  1455                           	retlw	low(0)
  1456  017C' 3400               	retlw	high(0)
  1457  017D' 3400               
  1458                           	retlw	low(0)
  1459  017E' 3400               	retlw	high(0)
  1460  017F' 3400               
  1461                           	retlw	low(0)
  1462  0180' 3400               	retlw	high(0)
  1463  0181' 3400               
  1464                           	retlw	low(0)
  1465  0182' 3400               	retlw	high(0)
  1466  0183' 3400               
  1467                           	global __end_of_font
  1468                           __end_of_font:
  1469  0184'                    	global	_font
  1470                           	global	__selectedInput
  1471                           	global	__lastB
  1472                           	global	__lastA
  1473                           	global	__inputUpdateRequired
  1474                           	global	_PORTC
  1475                           _PORTC	set	0x7
  1476  0007                     	global	_PORTA
  1477                           _PORTA	set	0x5
  1478  0005                     	global	_SSPBUF
  1479                           _SSPBUF	set	0x13
  1480  0013                     	global	_PORTBbits
  1481                           _PORTBbits	set	0x6
  1482  0006                     	global	_INTCONbits
  1483                           _INTCONbits	set	0xB
  1484  000B                     	global	_PORTCbits
  1485                           _PORTCbits	set	0x7
  1486  0007                     	global	_SSPCON
  1487                           _SSPCON	set	0x14
  1488  0014                     	global	_IOCBbits
  1489                           _IOCBbits	set	0x96
  1490  0096                     	global	_TRISCbits
  1491                           _TRISCbits	set	0x87
  1492  0087                     	global	_TRISEbits
  1493                           _TRISEbits	set	0x89
  1494  0089                     	global	_TRISBbits
  1495                           _TRISBbits	set	0x86
  1496  0086                     	global	_TRISAbits
  1497                           _TRISAbits	set	0x85
  1498  0085                     	global	_OSCCON
  1499                           _OSCCON	set	0x8F
  1500  008F                     	global	_SSPSTATbits
  1501                           _SSPSTATbits	set	0x94
  1502  0094                     	global	_TRISC
  1503                           _TRISC	set	0x87
  1504  0087                     	global	_TRISD
  1505                           _TRISD	set	0x88
  1506  0088                     	global	_SSPSTAT
  1507                           _SSPSTAT	set	0x94
  1508  0094                     	global	_ANSELbits
  1509                           _ANSELbits	set	0x188
  1510  0188                     	global	_ANSELHbits
  1511                           _ANSELHbits	set	0x189
  1512  0189                     ; #config settings
  1513                           global __CFG_FOSC$INTRC_CLKOUT
  1514                           __CFG_FOSC$INTRC_CLKOUT equ 0x0
  1515  0000                     global __CFG_WDTE$OFF
  1516                           __CFG_WDTE$OFF equ 0x0
  1517  0000                     global __CFG_PWRTE$OFF
  1518                           __CFG_PWRTE$OFF equ 0x0
  1519  0000                     global __CFG_MCLRE$OFF
  1520                           __CFG_MCLRE$OFF equ 0x0
  1521  0000                     global __CFG_CP$OFF
  1522                           __CFG_CP$OFF equ 0x0
  1523  0000                     global __CFG_CPD$OFF
  1524                           __CFG_CPD$OFF equ 0x0
  1525  0000                     global __CFG_BOREN$ON
  1526                           __CFG_BOREN$ON equ 0x0
  1527  0000                     global __CFG_IESO$OFF
  1528                           __CFG_IESO$OFF equ 0x0
  1529  0000                     global __CFG_FCMEN$OFF
  1530                           __CFG_FCMEN$OFF equ 0x0
  1531  0000                     global __CFG_LVP$OFF
  1532                           __CFG_LVP$OFF equ 0x0
  1533  0000                     global __CFG_BOR4V$BOR21V
  1534                           __CFG_BOR4V$BOR21V equ 0x0
  1535  0000                     global __CFG_WRT$OFF
  1536                           __CFG_WRT$OFF equ 0x0
  1537  0000                     	file	"C:\Users\Niek\AppData\Local\Temp\saj4."
  1538                           	line	#
  1539                           psect cinit,class=CODE,delta=2
  1540                           global start_initialization
  1541                           start_initialization:
  1542  0000'                    
  1543                           global __initialization
  1544                           __initialization:
  1545  0000'                    psect	bssCOMMON,class=COMMON,space=1,noexec
  1546                           global __pbssCOMMON
  1547                           __pbssCOMMON:
  1548  0000'                    _portB:
  1549  0000'                           ds      2
  1550  0000'                    
  1551                           _portA:
  1552  0002'                           ds      2
  1553  0002'                    
  1554                           	file	"C:\Users\Niek\AppData\Local\Temp\saj4."
  1555                           	line	#
  1556                           ; Clear objects allocated to COMMON
  1557                           psect cinit,class=CODE,delta=2,merge=1
  1558                           	clrf	((__pbssCOMMON)+0)&07Fh
  1559  0000' 0180'              	clrf	((__pbssCOMMON)+1)&07Fh
  1560  0001' 0180'              	clrf	((__pbssCOMMON)+2)&07Fh
  1561  0002' 0180'              	clrf	((__pbssCOMMON)+3)&07Fh
  1562  0003' 0180'              psect cinit,class=CODE,delta=2,merge=1
  1563                           global end_of_initialization,__end_of__initialization
  1564                           
  1565                           ;End of C runtime variable initialization code
  1566                           
  1567                           end_of_initialization:
  1568  0004'                    __end_of__initialization:
  1569  0004'                    clrf status
  1570  0004' 0183               ljmp _main	;jump to C main() function
  1571  0005' 120A' 118A' 2800'  psect	cstackCOMMON,class=COMMON,space=1,noexec
  1572                           global __pcstackCOMMON
  1573                           __pcstackCOMMON:
  1574  0000'                    ?_config:	; 1 bytes @ 0x0
  1575  0000'                    ?_activateSelectedRelay:	; 1 bytes @ 0x0
  1576  0000'                    ?_spiWrite:	; 1 bytes @ 0x0
  1577  0000'                    ?_write_volume:	; 1 bytes @ 0x0
  1578  0000'                    ?_main:	; 1 bytes @ 0x0
  1579  0000'                    ?_isr:	; 1 bytes @ 0x0
  1580  0000'                    ??_isr:	; 1 bytes @ 0x0
  1581  0000'                    ?_white_space:	; 1 bytes @ 0x0
  1582  0000'                    	ds	5
  1583  0000'                    	global	isr@portA
  1584                           isr@portA:	; 2 bytes @ 0x5
  1585  0005'                    	ds	2
  1586  0005'                    	global	isr@portB
  1587                           isr@portB:	; 2 bytes @ 0x7
  1588  0007'                    	ds	2
  1589  0007'                    psect	cstackBANK0,class=BANK0,space=1,noexec
  1590                           global __pcstackBANK0
  1591                           __pcstackBANK0:
  1592  0000'                    ??_config:	; 1 bytes @ 0x0
  1593  0000'                    ??_activateSelectedRelay:	; 1 bytes @ 0x0
  1594  0000'                    ??_spiWrite:	; 1 bytes @ 0x0
  1595  0000'                    	global	spiWrite@data
  1596                           spiWrite@data:	; 1 bytes @ 0x0
  1597  0000'                    	ds	1
  1598  0000'                    ??_white_space:	; 1 bytes @ 0x1
  1599  0001'                    	ds	2
  1600  0001'                    	global	white_space@aantal_spaces
  1601                           white_space@aantal_spaces:	; 1 bytes @ 0x3
  1602  0003'                    	global	config@_selectedInput
  1603                           config@_selectedInput:	; 2 bytes @ 0x3
  1604  0003'                    	ds	1
  1605  0003'                    	global	white_space@kolom
  1606                           white_space@kolom:	; 2 bytes @ 0x4
  1607  0004'                    	ds	1
  1608  0004'                    	global	config@_lastA
  1609                           config@_lastA:	; 2 bytes @ 0x5
  1610  0005'                    	ds	1
  1611  0005'                    	global	white_space@rij
  1612                           white_space@rij:	; 2 bytes @ 0x6
  1613  0006'                    	ds	1
  1614  0006'                    	global	config@_lastB
  1615                           config@_lastB:	; 2 bytes @ 0x7
  1616  0007'                    	ds	1
  1617  0007'                    ??_write_volume:	; 1 bytes @ 0x8
  1618  0008'                    	ds	1
  1619  0008'                    	global	config@_inputUpdateRequired
  1620                           config@_inputUpdateRequired:	; 1 bytes @ 0x9
  1621  0009'                    	ds	1
  1622  0009'                    	global	write_volume@volume
  1623                           write_volume@volume:	; 1 bytes @ 0xA
  1624  000A'                    	global	config@data
  1625                           config@data:	; 1 bytes @ 0xA
  1626  000A'                    	ds	1
  1627  000A'                    	global	config@display
  1628                           config@display:	; 1 bytes @ 0xB
  1629  000B'                    	global	write_volume@x
  1630                           write_volume@x:	; 2 bytes @ 0xB
  1631  000B'                    	ds	2
  1632  000B'                    	global	write_volume@x_280
  1633                           write_volume@x_280:	; 2 bytes @ 0xD
  1634  000D'                    	ds	2
  1635  000D'                    ??_main:	; 1 bytes @ 0xF
  1636  000F'                    	ds	3
  1637  000F'                    	global	main@volume
  1638                           main@volume:	; 1 bytes @ 0x12
  1639  0012'                    	ds	1
  1640  0012'                    ;!
  1641                           ;!Data Sizes:
  1642                           ;!    Strings     0
  1643                           ;!    Constant    370
  1644                           ;!    Data        0
  1645                           ;!    BSS         11
  1646                           ;!    Persistent  0
  1647                           ;!    Stack       0
  1648                           ;!
  1649                           ;!Auto Spaces:
  1650                           ;!    Space          Size  Autos    Used
  1651                           ;!    COMMON           14      9      13
  1652                           ;!    BANK0            80     19      19
  1653                           ;!    BANK1            80      0       0
  1654                           ;!    BANK3            96      0       0
  1655                           ;!    BANK2            96      0       0
  1656                           
  1657                           ;!
  1658                           ;!Pointer List with Targets:
  1659                           ;!
  1660                           ;!    None.
  1661                           
  1662                           
  1663                           ;!
  1664                           ;!Critical Paths under _main in COMMON
  1665                           ;!
  1666                           ;!    None.
  1667                           ;!
  1668                           ;!Critical Paths under _isr in COMMON
  1669                           ;!
  1670                           ;!    None.
  1671                           ;!
  1672                           ;!Critical Paths under _main in BANK0
  1673                           ;!
  1674                           ;!    _main->_write_volume
  1675                           ;!    _write_volume->_white_space
  1676                           ;!    _white_space->_spiWrite
  1677                           ;!
  1678                           ;!Critical Paths under _isr in BANK0
  1679                           ;!
  1680                           ;!    None.
  1681                           ;!
  1682                           ;!Critical Paths under _main in BANK1
  1683                           ;!
  1684                           ;!    None.
  1685                           ;!
  1686                           ;!Critical Paths under _isr in BANK1
  1687                           ;!
  1688                           ;!    None.
  1689                           ;!
  1690                           ;!Critical Paths under _main in BANK3
  1691                           ;!
  1692                           ;!    None.
  1693                           ;!
  1694                           ;!Critical Paths under _isr in BANK3
  1695                           ;!
  1696                           ;!    None.
  1697                           ;!
  1698                           ;!Critical Paths under _main in BANK2
  1699                           ;!
  1700                           ;!    None.
  1701                           ;!
  1702                           ;!Critical Paths under _isr in BANK2
  1703                           ;!
  1704                           ;!    None.
  1705                           
  1706 ;;
  1707 ;;Main: autosize = 0, tempsize = 3, incstack = 0, save=0
  1708 ;;
  1709                           
  1710                           ;!
  1711                           ;!Call Graph Tables:
  1712                           ;!
  1713                           ;! ---------------------------------------------------------------------------------
  1714                           ;! (Depth) Function   	        Calls       Base Space   Used Autos Params    Refs
  1715                           ;! ---------------------------------------------------------------------------------
  1716                           ;! (0) _main                                                 4     4      0     368
  1717                           ;!                                             15 BANK0      4     4      0
  1718                           ;!              _activateSelectedRelay
  1719                           ;!                             _config
  1720                           ;!                           _spiWrite
  1721                           ;!                       _write_volume
  1722                           ;! ---------------------------------------------------------------------------------
  1723                           ;! (1) _write_volume                                         7     7      0     338
  1724                           ;!                                              8 BANK0      7     7      0
  1725                           ;!                           _spiWrite
  1726                           ;!                        _white_space
  1727                           ;! ---------------------------------------------------------------------------------
  1728                           ;! (2) _white_space                                          7     7      0     136
  1729                           ;!                                              1 BANK0      7     7      0
  1730                           ;!                           _spiWrite
  1731                           ;! ---------------------------------------------------------------------------------
  1732                           ;! (3) _spiWrite                                             1     1      0      22
  1733                           ;!                                              0 BANK0      1     1      0
  1734                           ;! ---------------------------------------------------------------------------------
  1735                           ;! (1) _config                                              12    12      0       6
  1736                           ;!                                              0 BANK0     12    12      0
  1737                           ;! ---------------------------------------------------------------------------------
  1738                           ;! (1) _activateSelectedRelay                                0     0      0       0
  1739                           ;! ---------------------------------------------------------------------------------
  1740                           ;! Estimated maximum stack depth 3
  1741                           ;! ---------------------------------------------------------------------------------
  1742                           ;! (Depth) Function   	        Calls       Base Space   Used Autos Params    Refs
  1743                           ;! ---------------------------------------------------------------------------------
  1744                           ;! (4) _isr                                                  9     9      0      60
  1745                           ;!                                              0 COMMON     9     9      0
  1746                           ;! ---------------------------------------------------------------------------------
  1747                           ;! Estimated maximum stack depth 4
  1748                           ;! ---------------------------------------------------------------------------------
  1749                           ;!
  1750                           ;! Call Graph Graphs:
  1751                           ;!
  1752                           ;! _main (ROOT)
  1753                           ;!   _activateSelectedRelay
  1754                           ;!   _config
  1755                           ;!   _spiWrite
  1756                           ;!   _write_volume
  1757                           ;!     _spiWrite
  1758                           ;!     _white_space
  1759                           ;!       _spiWrite
  1760                           ;!
  1761                           ;! _isr (ROOT)
  1762                           ;!
  1763                           
  1764                           ;! Address spaces:
  1765                           
  1766                           ;!Name               Size   Autos  Total    Cost      Usage
  1767                           ;!BITCOMMON            E      0       0       0        0.0%
  1768                           ;!EEDATA             100      0       0       0        0.0%
  1769                           ;!NULL                 0      0       0       0        0.0%
  1770                           ;!CODE                 0      0       0       0        0.0%
  1771                           ;!COMMON               E      9       D       1       92.9%
  1772                           ;!BITSFR0              0      0       0       1        0.0%
  1773                           ;!SFR0                 0      0       0       1        0.0%
  1774                           ;!BITSFR1              0      0       0       2        0.0%
  1775                           ;!SFR1                 0      0       0       2        0.0%
  1776                           ;!STACK                0      0       0       2        0.0%
  1777                           ;!ABS                  0      0      20       3        0.0%
  1778                           ;!BITBANK0            50      0       0       4        0.0%
  1779                           ;!BITSFR3              0      0       0       4        0.0%
  1780                           ;!SFR3                 0      0       0       4        0.0%
  1781                           ;!BANK0               50     13      13       5       23.8%
  1782                           ;!BITSFR2              0      0       0       5        0.0%
  1783                           ;!SFR2                 0      0       0       5        0.0%
  1784                           ;!BITBANK1            50      0       0       6        0.0%
  1785                           ;!BANK1               50      0       0       7        0.0%
  1786                           ;!BITBANK3            60      0       0       8        0.0%
  1787                           ;!BANK3               60      0       0       9        0.0%
  1788                           ;!BITBANK2            60      0       0      10        0.0%
  1789                           ;!BANK2               60      0       0      11        0.0%
  1790                           ;!DATA                 0      0      20      12        0.0%
  1791                           
  1792                           	global	_main
  1793                           
  1794 ;; *************** function _main *****************
  1795 ;; Defined at:
  1796 ;;		line 31 in file "main.c"
  1797 ;; Parameters:    Size  Location     Type
  1798 ;;		None
  1799 ;; Auto vars:     Size  Location     Type
  1800 ;;  volume          1   18[BANK0 ] unsigned char 
  1801 ;; Return value:  Size  Location     Type
  1802 ;;                  1    wreg      void 
  1803 ;; Registers used:
  1804 ;;		wreg, fsr0l, fsr0h, status,2, status,0, btemp+1, pclath, cstack
  1805 ;; Tracked objects:
  1806 ;;		On entry : B00/0
  1807 ;;		On exit  : 0/0
  1808 ;;		Unchanged: 0/0
  1809 ;; Data sizes:     COMMON   BANK0   BANK1   BANK3   BANK2
  1810 ;;      Params:         0       0       0       0       0
  1811 ;;      Locals:         0       1       0       0       0
  1812 ;;      Temps:          0       3       0       0       0
  1813 ;;      Totals:         0       4       0       0       0
  1814 ;;Total ram usage:        4 bytes
  1815 ;; Hardware stack levels required when called:    4
  1816 ;; This function calls:
  1817 ;;		_activateSelectedRelay
  1818 ;;		_config
  1819 ;;		_spiWrite
  1820 ;;		_write_volume
  1821 ;; This function is called by:
  1822 ;;		Startup code after reset
  1823 ;; This function uses a non-reentrant model
  1824 ;;
  1825                           psect	maintext,global,class=CODE,delta=2,split=1,group=0
  1826                           	file	"main.c"
  1827                           	line	31
  1828                           global __pmaintext
  1829                           __pmaintext:	;psect for function _main
  1830  0000'                    psect	maintext
  1831                           	file	"main.c"
  1832                           	line	31
  1833                           	global	__size_of_main
  1834                           	__size_of_main	equ	__end_of_main-_main
  1835  005A                     	
  1836                           _main:	
  1837  0000'                    ;incstack = 0
  1838                           	opt	stack 4
  1839                           ; Regs used in _main: [wreg-fsr0h+status,2+status,0+btemp+1+pclath+cstack]
  1840                           	line	33
  1841                           	
  1842                           l1064:	
  1843  0000'                    ;main.c: 33:     config();
  1844                           	fcall	_config
  1845  0000' 120A' 118A' 2000' 120A' 118A' 	line	34
  1846                           	
  1847                           l1066:	
  1848  0005'                    ;main.c: 34:     activateSelectedRelay();
  1849                           	fcall	_activateSelectedRelay
  1850  0005' 120A' 118A' 2000' 120A' 118A' 	line	35
  1851                           	
  1852                           l1068:	
  1853  000A'                    ;main.c: 35:     SSPCON = 0b00100000;
  1854                           	movlw	low(020h)
  1855  000A' 3020               	bcf	status, 5	;RP0=0, select bank0
  1856  000B' 1283               	bcf	status, 6	;RP1=0, select bank0
  1857  000C' 1303               	movwf	(20)	;volatile
  1858  000D' 0094               	line	36
  1859                           	
  1860                           l1070:	
  1861  000E'                    ;main.c: 36:     SSPSTAT = 0b01000000;
  1862                           	movlw	low(040h)
  1863  000E' 3040               	bsf	status, 5	;RP0=1, select bank1
  1864  000F' 1683               	bcf	status, 6	;RP1=0, select bank1
  1865  0010' 1303               	movwf	(148)^080h	;volatile
  1866  0011' 0094               	line	39
  1867                           	
  1868                           l1072:	
  1869  0012'                    ;main.c: 39:     TRISD = 0x00;
  1870                           	clrf	(136)^080h	;volatile
  1871  0012' 0188               	line	40
  1872                           	
  1873                           l1074:	
  1874  0013'                    ;main.c: 40:     TRISC = 0x00;
  1875                           	clrf	(135)^080h	;volatile
  1876  0013' 0187               	line	83
  1877                           	
  1878                           l1076:	
  1879  0014'                    ;main.c: 83:     PORTCbits.RC2 = 1;
  1880                           	bcf	status, 5	;RP0=0, select bank0
  1881  0014' 1283               	bcf	status, 6	;RP1=0, select bank0
  1882  0015' 1303               	bsf	(7),2	;volatile
  1883  0016' 1507               	line	84
  1884                           	
  1885                           l1078:	
  1886  0017'                    ;main.c: 84:     PORTCbits.RC6 = 0;
  1887                           	bcf	(7),6	;volatile
  1888  0017' 1307               	line	85
  1889                           	
  1890                           l1080:	
  1891  0018'                    ;main.c: 85:     PORTCbits.RC4 = 1;
  1892                           	bsf	(7),4	;volatile
  1893  0018' 1607               	line	86
  1894                           	
  1895                           l1082:	
  1896  0019'                    ;main.c: 86:     PORTCbits.RC3 = 0;
  1897                           	bcf	(7),3	;volatile
  1898  0019' 1187               	line	87
  1899                           	
  1900                           l1084:	
  1901  001A'                    ;main.c: 87:     PORTCbits.RC7 = 0;
  1902                           	bcf	(7),7	;volatile
  1903  001A' 1387               	line	90
  1904                           	
  1905                           l1086:	
  1906  001B'                    ;main.c: 90:     PORTCbits.RC7 = 1;
  1907                           	bsf	(7),7	;volatile
  1908  001B' 1787               	line	91
  1909                           	
  1910                           l1088:	
  1911  001C'                    ;main.c: 91:     PORTCbits.RC4 = 0;
  1912                           	bcf	(7),4	;volatile
  1913  001C' 1207               	line	92
  1914                           	
  1915                           l1090:	
  1916  001D'                    ;main.c: 92:     spiWrite(0b01001010);
  1917                           	movlw	low(04Ah)
  1918  001D' 304A               	fcall	_spiWrite
  1919  001E' 120A' 118A' 2000' 120A' 118A' 	line	94
  1920                           	
  1921                           l1092:	
  1922  0023'                    ;main.c: 94:     PORTCbits.RC4 = 1;
  1923                           	bcf	status, 5	;RP0=0, select bank0
  1924  0023' 1283               	bcf	status, 6	;RP1=0, select bank0
  1925  0024' 1303               	bsf	(7),4	;volatile
  1926  0025' 1607               	line	96
  1927                           	
  1928                           l1094:	
  1929  0026'                    ;main.c: 96:     PORTCbits.RC7 = 1;
  1930                           	bsf	(7),7	;volatile
  1931  0026' 1787               	line	97
  1932                           	
  1933                           l1096:	
  1934  0027'                    ;main.c: 97:     PORTCbits.RC4 = 0;
  1935                           	bcf	(7),4	;volatile
  1936  0027' 1207               	line	99
  1937                           	
  1938                           l1098:	
  1939  0028'                    ;main.c: 99:     spiWrite(0b10000001);
  1940                           	movlw	low(081h)
  1941  0028' 3081               	fcall	_spiWrite
  1942  0029' 120A' 118A' 2000' 120A' 118A' 	line	100
  1943                           	
  1944                           l1100:	
  1945  002E'                    ;main.c: 100:     PORTCbits.RC4 = 1;
  1946                           	bcf	status, 5	;RP0=0, select bank0
  1947  002E' 1283               	bcf	status, 6	;RP1=0, select bank0
  1948  002F' 1303               	bsf	(7),4	;volatile
  1949  0030' 1607               	line	102
  1950                           	
  1951                           l1102:	
  1952  0031'                    ;main.c: 102:     PORTCbits.RC7 = 0;
  1953                           	bcf	(7),7	;volatile
  1954  0031' 1387               	line	103
  1955                           	
  1956                           l1104:	
  1957  0032'                    ;main.c: 103:     PORTCbits.RC4 = 0;
  1958                           	bcf	(7),4	;volatile
  1959  0032' 1207               	line	107
  1960                           	
  1961                           l1106:	
  1962  0033'                    ;main.c: 107:     char volume = 1;
  1963                           	clrf	(main@volume)
  1964  0033' 0192'              	incf	(main@volume),f
  1965  0034' 0A92'              	goto	l1108
  1966  0035' 2800'              	line	110
  1967                           ;main.c: 110:     while(1){
  1968                           	
  1969                           l41:	
  1970  0036'                    	line	111
  1971                           	
  1972                           l1108:	
  1973  0036'                    ;main.c: 111:     PORTCbits.RC7 = 0;
  1974                           	bcf	(7),7	;volatile
  1975  0036' 1387               	line	112
  1976                           	
  1977                           l1110:	
  1978  0037'                    ;main.c: 112:     PORTCbits.RC4 = 0;
  1979                           	bcf	(7),4	;volatile
  1980  0037' 1207               	line	113
  1981                           	
  1982                           l1112:	
  1983  0038'                    ;main.c: 113:     write_volume(0);
  1984                           	movlw	low(0)
  1985  0038' 3000               	fcall	_write_volume
  1986  0039' 120A' 118A' 2000' 120A' 118A' 	line	116
  1987                           	
  1988                           l1114:	
  1989  003E'                    ;main.c: 116:     PORTCbits.RC4 = 1;
  1990                           	bcf	status, 5	;RP0=0, select bank0
  1991  003E' 1283               	bcf	status, 6	;RP1=0, select bank0
  1992  003F' 1303               	bsf	(7),4	;volatile
  1993  0040' 1607               	line	117
  1994                           	
  1995                           l1116:	
  1996  0041'                    ;main.c: 117:     _delay((unsigned long)((2000)*(500000/4000.0)));
  1997                           	opt asmopt_push
  1998                           opt asmopt_off
  1999                           movlw  2
  2000  0041' 3002               	bcf	status, 5	;RP0=0, select bank0
  2001  0042' 1283               	bcf	status, 6	;RP1=0, select bank0
  2002  0043' 1303               movwf	((??_main+0)+0+2),f
  2003  0044' 0091'              movlw	69
  2004  0045' 3045               movwf	((??_main+0)+0+1),f
  2005  0046' 0090'              	movlw	169
  2006  0047' 30A9               movwf	((??_main+0)+0),f
  2007  0048' 008F'              	u307:
  2008  0049'                    decfsz	((??_main+0)+0),f
  2009  0049' 0B8F'              	goto	u307
  2010  004A' 2800'              	decfsz	((??_main+0)+0+1),f
  2011  004B' 0B90'              	goto	u307
  2012  004C' 2800'              	decfsz	((??_main+0)+0+2),f
  2013  004D' 0B91'              	goto	u307
  2014  004E' 2800'              opt asmopt_pop
  2015                           
  2016                           	line	119
  2017                           	
  2018                           l1118:	
  2019  004F'                    ;main.c: 119:     volume++;
  2020                           	movlw	low(01h)
  2021  004F' 3001               	bcf	status, 5	;RP0=0, select bank0
  2022  0050' 1283               	bcf	status, 6	;RP1=0, select bank0
  2023  0051' 1303               	movwf	(??_main+0)+0
  2024  0052' 008F'              	movf	(??_main+0)+0,w
  2025  0053' 080F'              	addwf	(main@volume),f
  2026  0054' 0792'              	goto	l1108
  2027  0055' 2800'              	line	122
  2028                           ;main.c: 122:     }
  2029                           	
  2030                           l42:	
  2031  0056'                    	goto	l1108
  2032  0056' 2800'              	
  2033                           l43:	
  2034  0057'                    	line	125
  2035                           ;main.c: 124:     return;
  2036                           	
  2037                           l44:	
  2038  0057'                    	global	start
  2039                           	ljmp	start
  2040  0057' 120A' 118A' 2800'  	opt stack 0
  2041                           GLOBAL	__end_of_main
  2042                           	__end_of_main:
  2043  005A'                    	signat	_main,89
  2044                           	global	_write_volume
  2045                           
  2046 ;; *************** function _write_volume *****************
  2047 ;; Defined at:
  2048 ;;		line 17 in file "Display.c"
  2049 ;; Parameters:    Size  Location     Type
  2050 ;;  volume          1    wreg     unsigned char 
  2051 ;; Auto vars:     Size  Location     Type
  2052 ;;  volume          1   10[BANK0 ] unsigned char 
  2053 ;;  x               2   11[BANK0 ] int 
  2054 ;;  x               2   13[BANK0 ] int 
  2055 ;; Return value:  Size  Location     Type
  2056 ;;                  1    wreg      void 
  2057 ;; Registers used:
  2058 ;;		wreg, fsr0l, fsr0h, status,2, status,0, btemp+1, pclath, cstack
  2059 ;; Tracked objects:
  2060 ;;		On entry : 0/0
  2061 ;;		On exit  : 0/0
  2062 ;;		Unchanged: 0/0
  2063 ;; Data sizes:     COMMON   BANK0   BANK1   BANK3   BANK2
  2064 ;;      Params:         0       0       0       0       0
  2065 ;;      Locals:         0       5       0       0       0
  2066 ;;      Temps:          0       2       0       0       0
  2067 ;;      Totals:         0       7       0       0       0
  2068 ;;Total ram usage:        7 bytes
  2069 ;; Hardware stack levels used:    1
  2070 ;; Hardware stack levels required when called:    3
  2071 ;; This function calls:
  2072 ;;		_spiWrite
  2073 ;;		_white_space
  2074 ;; This function is called by:
  2075 ;;		_main
  2076 ;; This function uses a non-reentrant model
  2077 ;;
  2078                           psect	text1,local,class=CODE,delta=2,merge=1,group=0
  2079                           	file	"Display.c"
  2080                           	line	17
  2081                           global __ptext1
  2082                           __ptext1:	;psect for function _write_volume
  2083  0000'                    psect	text1
  2084                           	file	"Display.c"
  2085                           	line	17
  2086                           	global	__size_of_write_volume
  2087                           	__size_of_write_volume	equ	__end_of_write_volume-_write_volume
  2088  00AA                     	
  2089                           _write_volume:	
  2090  0000'                    ;incstack = 0
  2091                           	opt	stack 4
  2092                           ; Regs used in _write_volume: [wreg-fsr0h+status,2+status,0+btemp+1+pclath+cstack]
  2093                           ;write_volume@volume stored from wreg
  2094                           	bcf	status, 5	;RP0=0, select bank0
  2095  0000' 1283               	bcf	status, 6	;RP1=0, select bank0
  2096  0001' 1303               	movwf	(write_volume@volume)
  2097  0002' 008A'              	line	19
  2098                           	
  2099                           l1032:	
  2100  0003'                    ;Display.c: 17: void write_volume(char volume);Display.c: 18: {;Display.c: 19:     if (v
                                 olume < 10)
  2101                           	movlw	low(0Ah)
  2102  0003' 300A               	subwf	(write_volume@volume),w
  2103  0004' 020A'              	skipnc
  2104  0005' 1803               	goto	u241
  2105  0006' 2800'              	goto	u240
  2106  0007' 2800'              u241:
  2107  0008'                    	goto	l1048
  2108  0008' 2800'              u240:
  2109  0009'                    	line	21
  2110                           	
  2111                           l1034:	
  2112  0009'                    ;Display.c: 20:     {;Display.c: 21:         white_space(7);
  2113                           	movlw	low(07h)
  2114  0009' 3007               	fcall	_white_space
  2115  000A' 120A' 118A' 2000' 120A' 118A' 	line	23
  2116                           	
  2117                           l1036:	
  2118  000F'                    ;Display.c: 23:         for(int x=0; x < 5; x++)
  2119                           	bcf	status, 5	;RP0=0, select bank0
  2120  000F' 1283               	bcf	status, 6	;RP1=0, select bank0
  2121  0010' 1303               	clrf	(write_volume@x)
  2122  0011' 018B'              	clrf	(write_volume@x+1)
  2123  0012' 018C'              	
  2124                           l1038:	
  2125  0013'                    	movf	(write_volume@x+1),w
  2126  0013' 080C'              	xorlw	80h
  2127  0014' 3A80               	movwf	btemp+1
  2128  0015' 00FF               	movlw	(0)^80h
  2129  0016' 3080               	subwf	btemp+1,w
  2130  0017' 027F               	skipz
  2131  0018' 1D03               	goto	u255
  2132  0019' 2800'              	movlw	05h
  2133  001A' 3005               	subwf	(write_volume@x),w
  2134  001B' 020B'              u255:
  2135  001C'                    
  2136                           	skipc
  2137  001C' 1C03               	goto	u251
  2138  001D' 2800'              	goto	u250
  2139  001E' 2800'              u251:
  2140  001F'                    	goto	l1042
  2141  001F' 2800'              u250:
  2142  0020'                    	goto	l1048
  2143  0020' 2800'              	
  2144                           l1040:	
  2145  0021'                    	goto	l1048
  2146  0021' 2800'              	
  2147                           l80:	
  2148  0022'                    	line	25
  2149                           	
  2150                           l1042:	
  2151  0022'                    ;Display.c: 24:             {;Display.c: 25:                 spiWrite(font[36][x]);
  2152                           	bcf	status, 5	;RP0=0, select bank0
  2153  0022' 1283               	bcf	status, 6	;RP1=0, select bank0
  2154  0023' 1303               	movf	(write_volume@x+1),w
  2155  0024' 080C'              	movwf	(??_write_volume+0)+0+1
  2156  0025' 0089'              	movf	(write_volume@x),w
  2157  0026' 080B'              	movwf	(??_write_volume+0)+0
  2158  0027' 0088'              	clrc
  2159  0028' 1003               	rlf	(??_write_volume+0)+0,f
  2160  0029' 0D88'              	rlf	(??_write_volume+0)+1,f
  2161  002A' 0D89'              	movlw	high(((_font)|8000h)+0168h)
  2162  002B' 3000'              	addwf	1+(??_write_volume+0)+0,w
  2163  002C' 0709'              	movwf	btemp+1
  2164  002D' 00FF               	movlw	low(((_font)|8000h)+0168h)
  2165  002E' 3000'              	addwf	0+(??_write_volume+0)+0,w
  2166  002F' 0708'              	movwf	fsr0
  2167  0030' 0084               	skipnc
  2168  0031' 1803               	incf	btemp+1,f
  2169  0032' 0AFF               	fcall	stringtab
  2170  0033' 120A' 118A' 2000' 120A' 118A' 	fcall	_spiWrite
  2171  0038' 120A' 118A' 2000' 120A' 118A' 	line	26
  2172                           	
  2173                           l1044:	
  2174  003D'                    ;Display.c: 26:             }
  2175                           	movlw	01h
  2176  003D' 3001               	bcf	status, 5	;RP0=0, select bank0
  2177  003E' 1283               	bcf	status, 6	;RP1=0, select bank0
  2178  003F' 1303               	addwf	(write_volume@x),f
  2179  0040' 078B'              	skipnc
  2180  0041' 1803               	incf	(write_volume@x+1),f
  2181  0042' 0A8C'              	movlw	0
  2182  0043' 3000               	addwf	(write_volume@x+1),f
  2183  0044' 078C'              	
  2184                           l1046:	
  2185  0045'                    	movf	(write_volume@x+1),w
  2186  0045' 080C'              	xorlw	80h
  2187  0046' 3A80               	movwf	btemp+1
  2188  0047' 00FF               	movlw	(0)^80h
  2189  0048' 3080               	subwf	btemp+1,w
  2190  0049' 027F               	skipz
  2191  004A' 1D03               	goto	u265
  2192  004B' 2800'              	movlw	05h
  2193  004C' 3005               	subwf	(write_volume@x),w
  2194  004D' 020B'              u265:
  2195  004E'                    
  2196                           	skipc
  2197  004E' 1C03               	goto	u261
  2198  004F' 2800'              	goto	u260
  2199  0050' 2800'              u261:
  2200  0051'                    	goto	l1042
  2201  0051' 2800'              u260:
  2202  0052'                    	goto	l1048
  2203  0052' 2800'              	
  2204                           l81:	
  2205  0053'                    	goto	l1048
  2206  0053' 2800'              	line	29
  2207                           ;Display.c: 29:     }
  2208                           	
  2209                           l79:	
  2210  0054'                    	line	31
  2211                           	
  2212                           l1048:	
  2213  0054'                    ;Display.c: 31:     if (volume >= 10)
  2214                           	movlw	low(0Ah)
  2215  0054' 300A               	bcf	status, 5	;RP0=0, select bank0
  2216  0055' 1283               	bcf	status, 6	;RP1=0, select bank0
  2217  0056' 1303               	subwf	(write_volume@volume),w
  2218  0057' 020A'              	skipc
  2219  0058' 1C03               	goto	u271
  2220  0059' 2800'              	goto	u270
  2221  005A' 2800'              u271:
  2222  005B'                    	goto	l1052
  2223  005B' 2800'              u270:
  2224  005C'                    	line	33
  2225                           	
  2226                           l1050:	
  2227  005C'                    ;Display.c: 33:         white_space(6);
  2228                           	movlw	low(06h)
  2229  005C' 3006               	fcall	_white_space
  2230  005D' 120A' 118A' 2000' 120A' 118A' 	goto	l1052
  2231  0062' 2800'              	
  2232                           l82:	
  2233  0063'                    	line	35
  2234                           	
  2235                           l1052:	
  2236  0063'                    ;Display.c: 35:             for(int x=0; x < 5; x++)
  2237                           	bcf	status, 5	;RP0=0, select bank0
  2238  0063' 1283               	bcf	status, 6	;RP1=0, select bank0
  2239  0064' 1303               	clrf	(write_volume@x_280)
  2240  0065' 018D'              	clrf	(write_volume@x_280+1)
  2241  0066' 018E'              	
  2242                           l1054:	
  2243  0067'                    	movf	(write_volume@x_280+1),w
  2244  0067' 080E'              	xorlw	80h
  2245  0068' 3A80               	movwf	btemp+1
  2246  0069' 00FF               	movlw	(0)^80h
  2247  006A' 3080               	subwf	btemp+1,w
  2248  006B' 027F               	skipz
  2249  006C' 1D03               	goto	u285
  2250  006D' 2800'              	movlw	05h
  2251  006E' 3005               	subwf	(write_volume@x_280),w
  2252  006F' 020D'              u285:
  2253  0070'                    
  2254                           	skipc
  2255  0070' 1C03               	goto	u281
  2256  0071' 2800'              	goto	u280
  2257  0072' 2800'              u281:
  2258  0073'                    	goto	l1058
  2259  0073' 2800'              u280:
  2260  0074'                    	goto	l84
  2261  0074' 2800'              	
  2262                           l1056:	
  2263  0075'                    	goto	l84
  2264  0075' 2800'              	
  2265                           l83:	
  2266  0076'                    	line	37
  2267                           	
  2268                           l1058:	
  2269  0076'                    ;Display.c: 36:             {;Display.c: 37:                 spiWrite(font[1][x]);
  2270                           	bcf	status, 5	;RP0=0, select bank0
  2271  0076' 1283               	bcf	status, 6	;RP1=0, select bank0
  2272  0077' 1303               	movf	(write_volume@x_280+1),w
  2273  0078' 080E'              	movwf	(??_write_volume+0)+0+1
  2274  0079' 0089'              	movf	(write_volume@x_280),w
  2275  007A' 080D'              	movwf	(??_write_volume+0)+0
  2276  007B' 0088'              	clrc
  2277  007C' 1003               	rlf	(??_write_volume+0)+0,f
  2278  007D' 0D88'              	rlf	(??_write_volume+0)+1,f
  2279  007E' 0D89'              	movlw	high(((_font)|8000h)+0Ah)
  2280  007F' 3000'              	addwf	1+(??_write_volume+0)+0,w
  2281  0080' 0709'              	movwf	btemp+1
  2282  0081' 00FF               	movlw	low(((_font)|8000h)+0Ah)
  2283  0082' 3000'              	addwf	0+(??_write_volume+0)+0,w
  2284  0083' 0708'              	movwf	fsr0
  2285  0084' 0084               	skipnc
  2286  0085' 1803               	incf	btemp+1,f
  2287  0086' 0AFF               	fcall	stringtab
  2288  0087' 120A' 118A' 2000' 120A' 118A' 	fcall	_spiWrite
  2289  008C' 120A' 118A' 2000' 120A' 118A' 	line	38
  2290                           	
  2291                           l1060:	
  2292  0091'                    ;Display.c: 38:             }
  2293                           	movlw	01h
  2294  0091' 3001               	bcf	status, 5	;RP0=0, select bank0
  2295  0092' 1283               	bcf	status, 6	;RP1=0, select bank0
  2296  0093' 1303               	addwf	(write_volume@x_280),f
  2297  0094' 078D'              	skipnc
  2298  0095' 1803               	incf	(write_volume@x_280+1),f
  2299  0096' 0A8E'              	movlw	0
  2300  0097' 3000               	addwf	(write_volume@x_280+1),f
  2301  0098' 078E'              	
  2302                           l1062:	
  2303  0099'                    	movf	(write_volume@x_280+1),w
  2304  0099' 080E'              	xorlw	80h
  2305  009A' 3A80               	movwf	btemp+1
  2306  009B' 00FF               	movlw	(0)^80h
  2307  009C' 3080               	subwf	btemp+1,w
  2308  009D' 027F               	skipz
  2309  009E' 1D03               	goto	u295
  2310  009F' 2800'              	movlw	05h
  2311  00A0' 3005               	subwf	(write_volume@x_280),w
  2312  00A1' 020D'              u295:
  2313  00A2'                    
  2314                           	skipc
  2315  00A2' 1C03               	goto	u291
  2316  00A3' 2800'              	goto	u290
  2317  00A4' 2800'              u291:
  2318  00A5'                    	goto	l1058
  2319  00A5' 2800'              u290:
  2320  00A6'                    	
  2321                           l84:	
  2322  00A6'                    	line	40
  2323                           ;Display.c: 40:     PORTCbits.RC4 = 1;
  2324                           	bcf	status, 5	;RP0=0, select bank0
  2325  00A6' 1283               	bcf	status, 6	;RP1=0, select bank0
  2326  00A7' 1303               	bsf	(7),4	;volatile
  2327  00A8' 1607               	line	41
  2328                           	
  2329                           l85:	
  2330  00A9'                    	return
  2331  00A9' 0008               	opt stack 0
  2332                           GLOBAL	__end_of_write_volume
  2333                           	__end_of_write_volume:
  2334  00AA'                    	signat	_write_volume,4217
  2335                           	global	_white_space
  2336                           
  2337 ;; *************** function _white_space *****************
  2338 ;; Defined at:
  2339 ;;		line 6 in file "Display.c"
  2340 ;; Parameters:    Size  Location     Type
  2341 ;;  aantal_space    1    wreg     unsigned char 
  2342 ;; Auto vars:     Size  Location     Type
  2343 ;;  aantal_space    1    3[BANK0 ] unsigned char 
  2344 ;;  rij             2    6[BANK0 ] int 
  2345 ;;  kolom           2    4[BANK0 ] int 
  2346 ;; Return value:  Size  Location     Type
  2347 ;;                  1    wreg      void 
  2348 ;; Registers used:
  2349 ;;		wreg, fsr0l, fsr0h, status,2, status,0, btemp+1, pclath, cstack
  2350 ;; Tracked objects:
  2351 ;;		On entry : 0/0
  2352 ;;		On exit  : 0/0
  2353 ;;		Unchanged: 0/0
  2354 ;; Data sizes:     COMMON   BANK0   BANK1   BANK3   BANK2
  2355 ;;      Params:         0       0       0       0       0
  2356 ;;      Locals:         0       5       0       0       0
  2357 ;;      Temps:          0       2       0       0       0
  2358 ;;      Totals:         0       7       0       0       0
  2359 ;;Total ram usage:        7 bytes
  2360 ;; Hardware stack levels used:    1
  2361 ;; Hardware stack levels required when called:    2
  2362 ;; This function calls:
  2363 ;;		_spiWrite
  2364 ;; This function is called by:
  2365 ;;		_write_volume
  2366 ;; This function uses a non-reentrant model
  2367 ;;
  2368                           psect	text2,local,class=CODE,delta=2,merge=1,group=0
  2369                           	line	6
  2370                           global __ptext2
  2371                           __ptext2:	;psect for function _white_space
  2372  0000'                    psect	text2
  2373                           	file	"Display.c"
  2374                           	line	6
  2375                           	global	__size_of_white_space
  2376                           	__size_of_white_space	equ	__end_of_white_space-_white_space
  2377  0061                     	
  2378                           _white_space:	
  2379  0000'                    ;incstack = 0
  2380                           	opt	stack 4
  2381                           ; Regs used in _white_space: [wreg-fsr0h+status,2+status,0+btemp+1+pclath+cstack]
  2382                           ;white_space@aantal_spaces stored from wreg
  2383                           	bcf	status, 5	;RP0=0, select bank0
  2384  0000' 1283               	bcf	status, 6	;RP1=0, select bank0
  2385  0001' 1303               	movwf	(white_space@aantal_spaces)
  2386  0002' 0083'              	line	8
  2387                           	
  2388                           l940:	
  2389  0003'                    ;Display.c: 8:     for(int kolom = 0; kolom < aantal_spaces; kolom++)
  2390                           	clrf	(white_space@kolom)
  2391  0003' 0184'              	clrf	(white_space@kolom+1)
  2392  0004' 0185'              	goto	l71
  2393  0005' 2800'              	
  2394                           l72:	
  2395  0006'                    	line	10
  2396                           	
  2397                           l942:	
  2398  0006'                    ;Display.c: 9:     {;Display.c: 10:         for(int rij = 0; rij < 5; rij++)
  2399                           	bcf	status, 5	;RP0=0, select bank0
  2400  0006' 1283               	bcf	status, 6	;RP1=0, select bank0
  2401  0007' 1303               	clrf	(white_space@rij)
  2402  0008' 0186'              	clrf	(white_space@rij+1)
  2403  0009' 0187'              	
  2404                           l944:	
  2405  000A'                    	movf	(white_space@rij+1),w
  2406  000A' 0807'              	xorlw	80h
  2407  000B' 3A80               	movwf	btemp+1
  2408  000C' 00FF               	movlw	(0)^80h
  2409  000D' 3080               	subwf	btemp+1,w
  2410  000E' 027F               	skipz
  2411  000F' 1D03               	goto	u205
  2412  0010' 2800'              	movlw	05h
  2413  0011' 3005               	subwf	(white_space@rij),w
  2414  0012' 0206'              u205:
  2415  0013'                    
  2416                           	skipc
  2417  0013' 1C03               	goto	u201
  2418  0014' 2800'              	goto	u200
  2419  0015' 2800'              u201:
  2420  0016'                    	goto	l948
  2421  0016' 2800'              u200:
  2422  0017'                    	goto	l954
  2423  0017' 2800'              	
  2424                           l946:	
  2425  0018'                    	goto	l954
  2426  0018' 2800'              	
  2427                           l73:	
  2428  0019'                    	line	12
  2429                           	
  2430                           l948:	
  2431  0019'                    ;Display.c: 11:         {;Display.c: 12:             spiWrite(font[0][rij]);
  2432                           	bcf	status, 5	;RP0=0, select bank0
  2433  0019' 1283               	bcf	status, 6	;RP1=0, select bank0
  2434  001A' 1303               	movf	(white_space@rij+1),w
  2435  001B' 0807'              	movwf	(??_white_space+0)+0+1
  2436  001C' 0082'              	movf	(white_space@rij),w
  2437  001D' 0806'              	movwf	(??_white_space+0)+0
  2438  001E' 0081'              	clrc
  2439  001F' 1003               	rlf	(??_white_space+0)+0,f
  2440  0020' 0D81'              	rlf	(??_white_space+0)+1,f
  2441  0021' 0D82'              	movlw	high(((_font)|8000h))
  2442  0022' 3000'              	addwf	1+(??_white_space+0)+0,w
  2443  0023' 0702'              	movwf	btemp+1
  2444  0024' 00FF               	movlw	low(((_font)|8000h))
  2445  0025' 3000'              	addwf	0+(??_white_space+0)+0,w
  2446  0026' 0701'              	movwf	fsr0
  2447  0027' 0084               	skipnc
  2448  0028' 1803               	incf	btemp+1,f
  2449  0029' 0AFF               	fcall	stringtab
  2450  002A' 120A' 118A' 2000' 120A' 118A' 	fcall	_spiWrite
  2451  002F' 120A' 118A' 2000' 120A' 118A' 	line	13
  2452                           	
  2453                           l950:	
  2454  0034'                    ;Display.c: 13:         }
  2455                           	movlw	01h
  2456  0034' 3001               	bcf	status, 5	;RP0=0, select bank0
  2457  0035' 1283               	bcf	status, 6	;RP1=0, select bank0
  2458  0036' 1303               	addwf	(white_space@rij),f
  2459  0037' 0786'              	skipnc
  2460  0038' 1803               	incf	(white_space@rij+1),f
  2461  0039' 0A87'              	movlw	0
  2462  003A' 3000               	addwf	(white_space@rij+1),f
  2463  003B' 0787'              	
  2464                           l952:	
  2465  003C'                    	movf	(white_space@rij+1),w
  2466  003C' 0807'              	xorlw	80h
  2467  003D' 3A80               	movwf	btemp+1
  2468  003E' 00FF               	movlw	(0)^80h
  2469  003F' 3080               	subwf	btemp+1,w
  2470  0040' 027F               	skipz
  2471  0041' 1D03               	goto	u215
  2472  0042' 2800'              	movlw	05h
  2473  0043' 3005               	subwf	(white_space@rij),w
  2474  0044' 0206'              u215:
  2475  0045'                    
  2476                           	skipc
  2477  0045' 1C03               	goto	u211
  2478  0046' 2800'              	goto	u210
  2479  0047' 2800'              u211:
  2480  0048'                    	goto	l948
  2481  0048' 2800'              u210:
  2482  0049'                    	goto	l954
  2483  0049' 2800'              	
  2484                           l74:	
  2485  004A'                    	line	14
  2486                           	
  2487                           l954:	
  2488  004A'                    ;Display.c: 14:     }
  2489                           	movlw	01h
  2490  004A' 3001               	bcf	status, 5	;RP0=0, select bank0
  2491  004B' 1283               	bcf	status, 6	;RP1=0, select bank0
  2492  004C' 1303               	addwf	(white_space@kolom),f
  2493  004D' 0784'              	skipnc
  2494  004E' 1803               	incf	(white_space@kolom+1),f
  2495  004F' 0A85'              	movlw	0
  2496  0050' 3000               	addwf	(white_space@kolom+1),f
  2497  0051' 0785'              	
  2498                           l71:	
  2499  0052'                    	movf	(white_space@kolom+1),w
  2500  0052' 0805'              	xorlw	80h
  2501  0053' 3A80               	movwf	(??_white_space+0)+0
  2502  0054' 0081'              	movlw	80h
  2503  0055' 3080               	subwf	(??_white_space+0)+0,w
  2504  0056' 0201'              	skipz
  2505  0057' 1D03               	goto	u225
  2506  0058' 2800'              	movf	(white_space@aantal_spaces),w
  2507  0059' 0803'              	subwf	(white_space@kolom),w
  2508  005A' 0204'              u225:
  2509  005B'                    
  2510                           	skipc
  2511  005B' 1C03               	goto	u221
  2512  005C' 2800'              	goto	u220
  2513  005D' 2800'              u221:
  2514  005E'                    	goto	l942
  2515  005E' 2800'              u220:
  2516  005F'                    	goto	l76
  2517  005F' 2800'              	
  2518                           l75:	
  2519  0060'                    	line	15
  2520                           	
  2521                           l76:	
  2522  0060'                    	return
  2523  0060' 0008               	opt stack 0
  2524                           GLOBAL	__end_of_white_space
  2525                           	__end_of_white_space:
  2526  0061'                    	signat	_white_space,4217
  2527                           	global	_spiWrite
  2528                           
  2529 ;; *************** function _spiWrite *****************
  2530 ;; Defined at:
  2531 ;;		line 43 in file "Display.c"
  2532 ;; Parameters:    Size  Location     Type
  2533 ;;  data            1    wreg     unsigned char 
  2534 ;; Auto vars:     Size  Location     Type
  2535 ;;  data            1    0[BANK0 ] unsigned char 
  2536 ;; Return value:  Size  Location     Type
  2537 ;;                  1    wreg      void 
  2538 ;; Registers used:
  2539 ;;		wreg
  2540 ;; Tracked objects:
  2541 ;;		On entry : 0/0
  2542 ;;		On exit  : 0/0
  2543 ;;		Unchanged: 0/0
  2544 ;; Data sizes:     COMMON   BANK0   BANK1   BANK3   BANK2
  2545 ;;      Params:         0       0       0       0       0
  2546 ;;      Locals:         0       1       0       0       0
  2547 ;;      Temps:          0       0       0       0       0
  2548 ;;      Totals:         0       1       0       0       0
  2549 ;;Total ram usage:        1 bytes
  2550 ;; Hardware stack levels used:    1
  2551 ;; Hardware stack levels required when called:    1
  2552 ;; This function calls:
  2553 ;;		Nothing
  2554 ;; This function is called by:
  2555 ;;		_main
  2556 ;;		_white_space
  2557 ;;		_write_volume
  2558 ;; This function uses a non-reentrant model
  2559 ;;
  2560                           psect	text3,local,class=CODE,delta=2,merge=1,group=0
  2561                           	line	43
  2562                           global __ptext3
  2563                           __ptext3:	;psect for function _spiWrite
  2564  0000'                    psect	text3
  2565                           	file	"Display.c"
  2566                           	line	43
  2567                           	global	__size_of_spiWrite
  2568                           	__size_of_spiWrite	equ	__end_of_spiWrite-_spiWrite
  2569  000E                     	
  2570                           _spiWrite:	
  2571  0000'                    ;incstack = 0
  2572                           	opt	stack 4
  2573                           ; Regs used in _spiWrite: [wreg]
  2574                           ;spiWrite@data stored from wreg
  2575                           	bcf	status, 5	;RP0=0, select bank0
  2576  0000' 1283               	bcf	status, 6	;RP1=0, select bank0
  2577  0001' 1303               	movwf	(spiWrite@data)
  2578  0002' 0080'              	line	45
  2579                           	
  2580                           l938:	
  2581  0003'                    ;Display.c: 43: void spiWrite(char data);Display.c: 44: {;Display.c: 45:     SSPBUF = da
                                 ta;
  2582                           	movf	(spiWrite@data),w
  2583  0003' 0800'              	movwf	(19)	;volatile
  2584  0004' 0093               	line	47
  2585                           ;Display.c: 47:     while(!SSPSTATbits.BF)
  2586                           	goto	l88
  2587  0005' 2800'              	
  2588                           l89:	
  2589  0006'                    	line	50
  2590                           ;Display.c: 48:     {;Display.c: 50:     }
  2591                           	
  2592                           l88:	
  2593  0006'                    	line	47
  2594                           ;Display.c: 47:     while(!SSPSTATbits.BF)
  2595                           	bsf	status, 5	;RP0=1, select bank1
  2596  0006' 1683               	bcf	status, 6	;RP1=0, select bank1
  2597  0007' 1303               	btfss	(148)^080h,0	;volatile
  2598  0008' 1C14               	goto	u191
  2599  0009' 2800'              	goto	u190
  2600  000A' 2800'              u191:
  2601  000B'                    	goto	l88
  2602  000B' 2800'              u190:
  2603  000C'                    	goto	l91
  2604  000C' 2800'              	
  2605                           l90:	
  2606  000D'                    	line	53
  2607                           	
  2608                           l91:	
  2609  000D'                    	return
  2610  000D' 0008               	opt stack 0
  2611                           GLOBAL	__end_of_spiWrite
  2612                           	__end_of_spiWrite:
  2613  000E'                    	signat	_spiWrite,4217
  2614                           	global	_config
  2615                           
  2616 ;; *************** function _config *****************
  2617 ;; Defined at:
  2618 ;;		line 5 in file "Config.c"
  2619 ;; Parameters:    Size  Location     Type
  2620 ;;		None
  2621 ;; Auto vars:     Size  Location     Type
  2622 ;;  _lastB          2    7[BANK0 ] unsigned short 
  2623 ;;  _lastA          2    5[BANK0 ] unsigned short 
  2624 ;;  _selectedInp    2    3[BANK0 ] unsigned short 
  2625 ;;  display         1   11[BANK0 ] unsigned char 
  2626 ;;  data            1   10[BANK0 ] unsigned char 
  2627 ;;  _inputUpdate    1    9[BANK0 ] unsigned char 
  2628 ;; Return value:  Size  Location     Type
  2629 ;;                  1    wreg      void 
  2630 ;; Registers used:
  2631 ;;		wreg, status,2, status,0
  2632 ;; Tracked objects:
  2633 ;;		On entry : 0/0
  2634 ;;		On exit  : 0/0
  2635 ;;		Unchanged: 0/0
  2636 ;; Data sizes:     COMMON   BANK0   BANK1   BANK3   BANK2
  2637 ;;      Params:         0       0       0       0       0
  2638 ;;      Locals:         0       9       0       0       0
  2639 ;;      Temps:          0       3       0       0       0
  2640 ;;      Totals:         0      12       0       0       0
  2641 ;;Total ram usage:       12 bytes
  2642 ;; Hardware stack levels used:    1
  2643 ;; Hardware stack levels required when called:    1
  2644 ;; This function calls:
  2645 ;;		Nothing
  2646 ;; This function is called by:
  2647 ;;		_main
  2648 ;; This function uses a non-reentrant model
  2649 ;;
  2650                           psect	text4,local,class=CODE,delta=2,merge=1,group=0
  2651                           	file	"Config.c"
  2652                           	line	5
  2653                           global __ptext4
  2654                           __ptext4:	;psect for function _config
  2655  0000'                    psect	text4
  2656                           	file	"Config.c"
  2657                           	line	5
  2658                           	global	__size_of_config
  2659                           	__size_of_config	equ	__end_of_config-_config
  2660  004E                     	
  2661                           _config:	
  2662  0000'                    ;incstack = 0
  2663                           	opt	stack 6
  2664                           ; Regs used in _config: [wreg+status,2+status,0]
  2665                           	line	11
  2666                           	
  2667                           l956:	
  2668  0000'                    ;Config.c: 7:         char _inputUpdateRequired;;Config.c: 8:         unsigned short _se
                                 lectedInput;;Config.c: 9:         unsigned short _lastA, _lastB;;Config.c: 11:         u
                                 nsigned char data = 0xFF;
  2669                           	movlw	low(0FFh)
  2670  0000' 30FF               	bcf	status, 5	;RP0=0, select bank0
  2671  0001' 1283               	bcf	status, 6	;RP1=0, select bank0
  2672  0002' 1303               	movwf	(??_config+0)+0
  2673  0003' 0080'              	movf	(??_config+0)+0,w
  2674  0004' 0800'              	movwf	(config@data)
  2675  0005' 008A'              	line	12
  2676                           	
  2677                           l958:	
  2678  0006'                    ;Config.c: 12:         char display = 1;
  2679                           	clrf	(config@display)
  2680  0006' 018B'              	incf	(config@display),f
  2681  0007' 0A8B'              	line	18
  2682                           ;Config.c: 18:     OSCCON = 0b00111000;
  2683                           	movlw	low(038h)
  2684  0008' 3038               	bsf	status, 5	;RP0=1, select bank1
  2685  0009' 1683               	bcf	status, 6	;RP1=0, select bank1
  2686  000A' 1303               	movwf	(143)^080h	;volatile
  2687  000B' 008F               	line	25
  2688                           	
  2689                           l960:	
  2690  000C'                    ;Config.c: 25:     TRISAbits.TRISA0 = 0;
  2691                           	bcf	(133)^080h,0	;volatile
  2692  000C' 1005               	line	26
  2693                           	
  2694                           l962:	
  2695  000D'                    ;Config.c: 26:     TRISAbits.TRISA1 = 0;
  2696                           	bcf	(133)^080h,1	;volatile
  2697  000D' 1085               	line	27
  2698                           	
  2699                           l964:	
  2700  000E'                    ;Config.c: 27:     TRISAbits.TRISA2 = 0;
  2701                           	bcf	(133)^080h,2	;volatile
  2702  000E' 1105               	line	28
  2703                           	
  2704                           l966:	
  2705  000F'                    ;Config.c: 28:     TRISAbits.TRISA3 = 0;
  2706                           	bcf	(133)^080h,3	;volatile
  2707  000F' 1185               	line	30
  2708                           ;Config.c: 30:     PORTA = 0x0F;
  2709                           	movlw	low(0Fh)
  2710  0010' 300F               	bcf	status, 5	;RP0=0, select bank0
  2711  0011' 1283               	bcf	status, 6	;RP1=0, select bank0
  2712  0012' 1303               	movwf	(5)	;volatile
  2713  0013' 0085               	line	37
  2714                           	
  2715                           l968:	
  2716  0014'                    ;Config.c: 37:     TRISBbits.TRISB4 = 1;
  2717                           	bsf	status, 5	;RP0=1, select bank1
  2718  0014' 1683               	bcf	status, 6	;RP1=0, select bank1
  2719  0015' 1303               	bsf	(134)^080h,4	;volatile
  2720  0016' 1606               	line	38
  2721                           	
  2722                           l970:	
  2723  0017'                    ;Config.c: 38:     TRISBbits.TRISB5 = 1;
  2724                           	bsf	(134)^080h,5	;volatile
  2725  0017' 1686               	line	40
  2726                           	
  2727                           l972:	
  2728  0018'                    ;Config.c: 40:     ANSELHbits.ANS11 = 0;
  2729                           	bsf	status, 5	;RP0=1, select bank3
  2730  0018' 1683               	bsf	status, 6	;RP1=1, select bank3
  2731  0019' 1703               	bcf	(393)^0180h,3	;volatile
  2732  001A' 1189               	line	41
  2733                           	
  2734                           l974:	
  2735  001B'                    ;Config.c: 41:     ANSELHbits.ANS13 = 0;
  2736                           	bcf	(393)^0180h,5	;volatile
  2737  001B' 1289               	line	47
  2738                           	
  2739                           l976:	
  2740  001C'                    ;Config.c: 47:     TRISEbits.TRISE0 = 1;
  2741                           	bsf	status, 5	;RP0=1, select bank1
  2742  001C' 1683               	bcf	status, 6	;RP1=0, select bank1
  2743  001D' 1303               	bsf	(137)^080h,0	;volatile
  2744  001E' 1409               	line	48
  2745                           	
  2746                           l978:	
  2747  001F'                    ;Config.c: 48:     ANSELbits.ANS5 = 1;
  2748                           	bsf	status, 5	;RP0=1, select bank3
  2749  001F' 1683               	bsf	status, 6	;RP1=1, select bank3
  2750  0020' 1703               	bsf	(392)^0180h,5	;volatile
  2751  0021' 1688               	line	53
  2752                           	
  2753                           l980:	
  2754  0022'                    ;Config.c: 53:     TRISBbits.TRISB0 = 1;
  2755                           	bsf	status, 5	;RP0=1, select bank1
  2756  0022' 1683               	bcf	status, 6	;RP1=0, select bank1
  2757  0023' 1303               	bsf	(134)^080h,0	;volatile
  2758  0024' 1406               	line	54
  2759                           	
  2760                           l982:	
  2761  0025'                    ;Config.c: 54:     ANSELHbits.ANS11 = 0;
  2762                           	bsf	status, 5	;RP0=1, select bank3
  2763  0025' 1683               	bsf	status, 6	;RP1=1, select bank3
  2764  0026' 1703               	bcf	(393)^0180h,3	;volatile
  2765  0027' 1189               	line	60
  2766                           	
  2767                           l984:	
  2768  0028'                    ;Config.c: 60:     TRISCbits.TRISC0 = 0;
  2769                           	bsf	status, 5	;RP0=1, select bank1
  2770  0028' 1683               	bcf	status, 6	;RP1=0, select bank1
  2771  0029' 1303               	bcf	(135)^080h,0	;volatile
  2772  002A' 1007               	line	61
  2773                           	
  2774                           l986:	
  2775  002B'                    ;Config.c: 61:     TRISCbits.TRISC1 = 0;
  2776                           	bcf	(135)^080h,1	;volatile
  2777  002B' 1087               	line	63
  2778                           	
  2779                           l988:	
  2780  002C'                    ;Config.c: 63:     PORTC = 0x00;
  2781                           	bcf	status, 5	;RP0=0, select bank0
  2782  002C' 1283               	bcf	status, 6	;RP1=0, select bank0
  2783  002D' 1303               	clrf	(7)	;volatile
  2784  002E' 0187               	line	78
  2785                           	
  2786                           l990:	
  2787  002F'                    ;Config.c: 78:     INTCONbits.RBIE = 1;
  2788                           	bsf	(11),3	;volatile
  2789  002F' 158B               	line	80
  2790                           	
  2791                           l992:	
  2792  0030'                    ;Config.c: 80:     IOCBbits.IOCB4 = 1;
  2793                           	bsf	status, 5	;RP0=1, select bank1
  2794  0030' 1683               	bcf	status, 6	;RP1=0, select bank1
  2795  0031' 1303               	bsf	(150)^080h,4	;volatile
  2796  0032' 1616               	line	81
  2797                           	
  2798                           l994:	
  2799  0033'                    ;Config.c: 81:     IOCBbits.IOCB5 = 1;
  2800                           	bsf	(150)^080h,5	;volatile
  2801  0033' 1696               	line	83
  2802                           	
  2803                           l996:	
  2804  0034'                    ;Config.c: 83:     INTCONbits.GIE = 1;
  2805                           	bsf	(11),7	;volatile
  2806  0034' 178B               	line	91
  2807                           	
  2808                           l998:	
  2809  0035'                    ;Config.c: 91:     _inputUpdateRequired = 1;
  2810                           	bcf	status, 5	;RP0=0, select bank0
  2811  0035' 1283               	bcf	status, 6	;RP1=0, select bank0
  2812  0036' 1303               	clrf	(config@_inputUpdateRequired)
  2813  0037' 0189'              	incf	(config@_inputUpdateRequired),f
  2814  0038' 0A89'              	line	92
  2815                           	
  2816                           l1000:	
  2817  0039'                    ;Config.c: 92:     _selectedInput = 0;
  2818                           	clrf	(config@_selectedInput)
  2819  0039' 0183'              	clrf	(config@_selectedInput+1)
  2820  003A' 0184'              	line	93
  2821                           	
  2822                           l1002:	
  2823  003B'                    ;Config.c: 93:     _lastA = PORTBbits.RB4;
  2824                           	swapf	(6),w	;volatile
  2825  003B' 0E06               	andlw	(1<<1)-1
  2826  003C' 3901               	movwf	(??_config+0)+0
  2827  003D' 0080'              	clrf	(??_config+0)+0+1
  2828  003E' 0181'              	movf	0+(??_config+0)+0,w
  2829  003F' 0800'              	movwf	(config@_lastA)
  2830  0040' 0085'              	movf	1+(??_config+0)+0,w
  2831  0041' 0801'              	movwf	(config@_lastA+1)
  2832  0042' 0086'              	line	94
  2833                           	
  2834                           l1004:	
  2835  0043'                    ;Config.c: 94:     _lastB = PORTBbits.RB5;
  2836                           	swapf	(6),w	;volatile
  2837  0043' 0E06               	movwf	(??_config+0)+0
  2838  0044' 0080'              	rrf	(??_config+0)+0,w
  2839  0045' 0C00'              	andlw	(1<<1)-1
  2840  0046' 3901               	movwf	(??_config+1)+0
  2841  0047' 0081'              	clrf	(??_config+1)+0+1
  2842  0048' 0182'              	movf	0+(??_config+1)+0,w
  2843  0049' 0801'              	movwf	(config@_lastB)
  2844  004A' 0087'              	movf	1+(??_config+1)+0,w
  2845  004B' 0802'              	movwf	(config@_lastB+1)
  2846  004C' 0088'              	line	95
  2847                           	
  2848                           l135:	
  2849  004D'                    	return
  2850  004D' 0008               	opt stack 0
  2851                           GLOBAL	__end_of_config
  2852                           	__end_of_config:
  2853  004E'                    	signat	_config,89
  2854                           	global	_activateSelectedRelay
  2855                           
  2856 ;; *************** function _activateSelectedRelay *****************
  2857 ;; Defined at:
  2858 ;;		line 5 in file "Input.c"
  2859 ;; Parameters:    Size  Location     Type
  2860 ;;		None
  2861 ;; Auto vars:     Size  Location     Type
  2862 ;;		None
  2863 ;; Return value:  Size  Location     Type
  2864 ;;                  1    wreg      void 
  2865 ;; Registers used:
  2866 ;;		wreg, fsr0l, fsr0h, status,2, status,0
  2867 ;; Tracked objects:
  2868 ;;		On entry : 0/0
  2869 ;;		On exit  : 0/0
  2870 ;;		Unchanged: 0/0
  2871 ;; Data sizes:     COMMON   BANK0   BANK1   BANK3   BANK2
  2872 ;;      Params:         0       0       0       0       0
  2873 ;;      Locals:         0       0       0       0       0
  2874 ;;      Temps:          0       0       0       0       0
  2875 ;;      Totals:         0       0       0       0       0
  2876 ;;Total ram usage:        0 bytes
  2877 ;; Hardware stack levels used:    1
  2878 ;; Hardware stack levels required when called:    1
  2879 ;; This function calls:
  2880 ;;		Nothing
  2881 ;; This function is called by:
  2882 ;;		_main
  2883 ;; This function uses a non-reentrant model
  2884 ;;
  2885                           psect	text5,local,class=CODE,delta=2,merge=1,group=0
  2886                           	file	"Input.c"
  2887                           	line	5
  2888                           global __ptext5
  2889                           __ptext5:	;psect for function _activateSelectedRelay
  2890  0000'                    psect	text5
  2891                           	file	"Input.c"
  2892                           	line	5
  2893                           	global	__size_of_activateSelectedRelay
  2894                           	__size_of_activateSelectedRelay	equ	__end_of_activateSelectedRelay-_activateSelectedRel
                                 ay
  2895  0041                     	
  2896                           _activateSelectedRelay:	
  2897  0000'                    ;incstack = 0
  2898                           	opt	stack 6
  2899                           ; Regs used in _activateSelectedRelay: [wreg-fsr0h+status,2+status,0]
  2900                           	line	7
  2901                           	
  2902                           l1006:	
  2903  0000'                    ;Input.c: 7:     if (!_inputUpdateRequired) return;
  2904                           	banksel	__inputUpdateRequired
  2905  0000' 1303' 1283'        	movf	((__inputUpdateRequired)&07fh),w
  2906  0002' 0800'              	btfss	status,2
  2907  0003' 1D03               	goto	u231
  2908  0004' 2800'              	goto	u230
  2909  0005' 2800'              u231:
  2910  0006'                    	goto	l1010
  2911  0006' 2800'              u230:
  2912  0007'                    	goto	l101
  2913  0007' 2800'              	
  2914                           l1008:	
  2915  0008'                    	goto	l101
  2916  0008' 2800'              	
  2917                           l100:	
  2918  0009'                    	line	9
  2919                           	
  2920                           l1010:	
  2921  0009'                    ;Input.c: 9:     PORTA = 0x0F;
  2922                           	movlw	low(0Fh)
  2923  0009' 300F               	bcf	status, 5	;RP0=0, select bank0
  2924  000A' 1283               	bcf	status, 6	;RP1=0, select bank0
  2925  000B' 1303               	movwf	(5)	;volatile
  2926  000C' 0085               	line	11
  2927                           ;Input.c: 11:     switch (_selectedInput) {
  2928                           	goto	l1024
  2929  000D' 2800'              	line	12
  2930                           ;Input.c: 12:         case 0:
  2931                           	
  2932                           l103:	
  2933  000E'                    	line	13
  2934                           	
  2935                           l1012:	
  2936  000E'                    ;Input.c: 13:             PORTA = ~0x01;
  2937                           	movlw	low(0FEh)
  2938  000E' 30FE               	bcf	status, 5	;RP0=0, select bank0
  2939  000F' 1283               	bcf	status, 6	;RP1=0, select bank0
  2940  0010' 1303               	movwf	(5)	;volatile
  2941  0011' 0085               	line	14
  2942                           ;Input.c: 14:             break;
  2943                           	goto	l1026
  2944  0012' 2800'              	line	15
  2945                           ;Input.c: 15:         case 1:
  2946                           	
  2947                           l105:	
  2948  0013'                    	line	16
  2949                           	
  2950                           l1014:	
  2951  0013'                    ;Input.c: 16:             PORTA = ~0x02;
  2952                           	movlw	low(0FDh)
  2953  0013' 30FD               	bcf	status, 5	;RP0=0, select bank0
  2954  0014' 1283               	bcf	status, 6	;RP1=0, select bank0
  2955  0015' 1303               	movwf	(5)	;volatile
  2956  0016' 0085               	line	17
  2957                           ;Input.c: 17:             break;
  2958                           	goto	l1026
  2959  0017' 2800'              	line	18
  2960                           ;Input.c: 18:         case 2:
  2961                           	
  2962                           l106:	
  2963  0018'                    	line	19
  2964                           	
  2965                           l1016:	
  2966  0018'                    ;Input.c: 19:             PORTA = ~0x04;
  2967                           	movlw	low(0FBh)
  2968  0018' 30FB               	bcf	status, 5	;RP0=0, select bank0
  2969  0019' 1283               	bcf	status, 6	;RP1=0, select bank0
  2970  001A' 1303               	movwf	(5)	;volatile
  2971  001B' 0085               	line	20
  2972                           ;Input.c: 20:             break;
  2973                           	goto	l1026
  2974  001C' 2800'              	line	21
  2975                           ;Input.c: 21:         case 3:
  2976                           	
  2977                           l107:	
  2978  001D'                    	line	22
  2979                           	
  2980                           l1018:	
  2981  001D'                    ;Input.c: 22:             PORTA = ~0x08;
  2982                           	movlw	low(0F7h)
  2983  001D' 30F7               	bcf	status, 5	;RP0=0, select bank0
  2984  001E' 1283               	bcf	status, 6	;RP1=0, select bank0
  2985  001F' 1303               	movwf	(5)	;volatile
  2986  0020' 0085               	line	23
  2987                           ;Input.c: 23:             break;
  2988                           	goto	l1026
  2989  0021' 2800'              	line	24
  2990                           ;Input.c: 24:         default:
  2991                           	
  2992                           l108:	
  2993  0022'                    	line	25
  2994                           	
  2995                           l1020:	
  2996  0022'                    ;Input.c: 25:             PORTA = ~0x01;
  2997                           	movlw	low(0FEh)
  2998  0022' 30FE               	bcf	status, 5	;RP0=0, select bank0
  2999  0023' 1283               	bcf	status, 6	;RP1=0, select bank0
  3000  0024' 1303               	movwf	(5)	;volatile
  3001  0025' 0085               	line	26
  3002                           ;Input.c: 26:             break;
  3003                           	goto	l1026
  3004  0026' 2800'              	line	27
  3005                           	
  3006                           l1022:	
  3007  0027'                    ;Input.c: 27:     }
  3008                           	goto	l1026
  3009  0027' 2800'              	
  3010                           l102:	
  3011  0028'                    	
  3012                           l1024:	
  3013  0028'                    	; Switch on 2 bytes has been partitioned into a top level switch of size 1, and 1 sub-s
                                 witches
  3014                           ; Switch size 1, requested type "space"
  3015                           ; Number of cases is 1, Range of values is 0 to 0
  3016                           ; switch strategies available:
  3017                           ; Name         Instructions Cycles
  3018                           ; simple_byte            4     3 (average)
  3019                           ; direct_byte           11     8 (fixed)
  3020                           ; jumptable            260     6 (fixed)
  3021                           ;	Chosen strategy is simple_byte
  3022                           
  3023                           	banksel	__selectedInput
  3024  0028' 1303' 1283'        	movf (__selectedInput+1)&07fh,w
  3025  002A' 0800'              	opt asmopt_push
  3026                           	opt asmopt_off
  3027                           	xorlw	0^0	; case 0
  3028  002B' 3A00               	skipnz
  3029  002C' 1903               	goto	l1140
  3030  002D' 2800'              	goto	l1020
  3031  002E' 2800'              	opt asmopt_pop
  3032                           	
  3033                           l1140:	
  3034  002F'                    ; Switch size 1, requested type "space"
  3035                           ; Number of cases is 4, Range of values is 0 to 3
  3036                           ; switch strategies available:
  3037                           ; Name         Instructions Cycles
  3038                           ; simple_byte           13     7 (average)
  3039                           ; direct_byte           20     8 (fixed)
  3040                           ; jumptable            260     6 (fixed)
  3041                           ;	Chosen strategy is simple_byte
  3042                           
  3043                           	movf (__selectedInput)&07fh,w
  3044  002F' 0800'              	opt asmopt_push
  3045                           	opt asmopt_off
  3046                           	xorlw	0^0	; case 0
  3047  0030' 3A00               	skipnz
  3048  0031' 1903               	goto	l1012
  3049  0032' 2800'              	xorlw	1^0	; case 1
  3050  0033' 3A01               	skipnz
  3051  0034' 1903               	goto	l1014
  3052  0035' 2800'              	xorlw	2^1	; case 2
  3053  0036' 3A03               	skipnz
  3054  0037' 1903               	goto	l1016
  3055  0038' 2800'              	xorlw	3^2	; case 3
  3056  0039' 3A01               	skipnz
  3057  003A' 1903               	goto	l1018
  3058  003B' 2800'              	goto	l1020
  3059  003C' 2800'              	opt asmopt_pop
  3060                           
  3061                           	
  3062                           l104:	
  3063  003D'                    	line	29
  3064                           	
  3065                           l1026:	
  3066  003D'                    ;Input.c: 29:     _inputUpdateRequired = 0;
  3067                           	banksel	__inputUpdateRequired
  3068  003D' 1303' 1283'        	clrf	(__inputUpdateRequired)&07fh
  3069  003F' 0180'              	line	30
  3070                           	
  3071                           l101:	
  3072  0040'                    	return
  3073  0040' 0008               	opt stack 0
  3074                           GLOBAL	__end_of_activateSelectedRelay
  3075                           	__end_of_activateSelectedRelay:
  3076  0041'                    	signat	_activateSelectedRelay,89
  3077                           	global	_isr
  3078                           
  3079 ;; *************** function _isr *****************
  3080 ;; Defined at:
  3081 ;;		line 127 in file "main.c"
  3082 ;; Parameters:    Size  Location     Type
  3083 ;;		None
  3084 ;; Auto vars:     Size  Location     Type
  3085 ;;  portB           2    7[COMMON] int 
  3086 ;;  portA           2    5[COMMON] int 
  3087 ;; Return value:  Size  Location     Type
  3088 ;;                  1    wreg      void 
  3089 ;; Registers used:
  3090 ;;		wreg, status,2, status,0
  3091 ;; Tracked objects:
  3092 ;;		On entry : 0/0
  3093 ;;		On exit  : 0/0
  3094 ;;		Unchanged: 0/0
  3095 ;; Data sizes:     COMMON   BANK0   BANK1   BANK3   BANK2
  3096 ;;      Params:         0       0       0       0       0
  3097 ;;      Locals:         4       0       0       0       0
  3098 ;;      Temps:          5       0       0       0       0
  3099 ;;      Totals:         9       0       0       0       0
  3100 ;;Total ram usage:        9 bytes
  3101 ;; Hardware stack levels used:    1
  3102 ;; This function calls:
  3103 ;;		Nothing
  3104 ;; This function is called by:
  3105 ;;		Interrupt level 1
  3106 ;; This function uses a non-reentrant model
  3107 ;;
  3108                           psect	text6,local,class=CODE,delta=2,merge=1,group=0
  3109                           	file	"main.c"
  3110                           	line	127
  3111                           global __ptext6
  3112                           __ptext6:	;psect for function _isr
  3113  0000'                    psect	text6
  3114                           	file	"main.c"
  3115                           	line	127
  3116                           	global	__size_of_isr
  3117                           	__size_of_isr	equ	__end_of_isr-_isr
  3118  00A2                     	
  3119                           _isr:	
  3120  0000'                    ;incstack = 0
  3121                           	opt	stack 4
  3122                           ; Regs used in _isr: [wreg+status,2+status,0]
  3123                           psect	intentry,class=CODE,delta=2
  3124                           global __pintentry
  3125                           __pintentry:
  3126  0000'                    global interrupt_function
  3127                           interrupt_function:
  3128  0000'                    	global saved_w
  3129                           	saved_w	set	btemp+0
  3130  007E                     	movwf	saved_w
  3131  0000' 00FE               	swapf	status,w
  3132  0001' 0E03               	movwf	(??_isr+3)
  3133  0002' 0083'              	movf	pclath,w
  3134  0003' 080A               	movwf	(??_isr+4)
  3135  0004' 0084'              	ljmp	_isr
  3136  0005' 120A' 118A' 2800'  psect	text6
  3137                           	line	129
  3138                           	
  3139                           i1l890:	
  3140  0000'                    ;main.c: 129:     if (INTCONbits.RBIF) {
  3141                           	btfss	(11),0	;volatile
  3142  0000' 1C0B               	goto	u12_21
  3143  0001' 2800'              	goto	u12_20
  3144  0002' 2800'              u12_21:
  3145  0003'                    	goto	i1l58
  3146  0003' 2800'              u12_20:
  3147  0004'                    	line	131
  3148                           	
  3149                           i1l892:	
  3150  0004'                    ;main.c: 131:         int portA = PORTBbits.RB4;
  3151                           	bcf	status, 5	;RP0=0, select bank0
  3152  0004' 1283               	bcf	status, 6	;RP1=0, select bank0
  3153  0005' 1303               	swapf	(6),w	;volatile
  3154  0006' 0E06               	andlw	(1<<1)-1
  3155  0007' 3901               	movwf	(??_isr+0)+0
  3156  0008' 0080'              	clrf	(??_isr+0)+0+1
  3157  0009' 0181'              	movf	0+(??_isr+0)+0,w
  3158  000A' 0800'              	movwf	(isr@portA)
  3159  000B' 0085'              	movf	1+(??_isr+0)+0,w
  3160  000C' 0801'              	movwf	(isr@portA+1)
  3161  000D' 0086'              	line	132
  3162                           ;main.c: 132:         int portB = PORTBbits.RB5;
  3163                           	swapf	(6),w	;volatile
  3164  000E' 0E06               	movwf	(??_isr+0)+0
  3165  000F' 0080'              	rrf	(??_isr+0)+0,w
  3166  0010' 0C00'              	andlw	(1<<1)-1
  3167  0011' 3901               	movwf	(??_isr+1)+0
  3168  0012' 0081'              	clrf	(??_isr+1)+0+1
  3169  0013' 0182'              	movf	0+(??_isr+1)+0,w
  3170  0014' 0801'              	movwf	(isr@portB)
  3171  0015' 0087'              	movf	1+(??_isr+1)+0,w
  3172  0016' 0802'              	movwf	(isr@portB+1)
  3173  0017' 0088'              	line	134
  3174                           	
  3175                           i1l894:	
  3176  0018'                    ;main.c: 134:         if (_lastA != portA) {
  3177                           	banksel	__lastA
  3178  0018' 1303' 1283'        	movf	(__lastA+1)&07fh,w
  3179  001A' 0800'              	xorwf	(isr@portA+1),w
  3180  001B' 0606'              	skipz
  3181  001C' 1D03               	goto	u13_25
  3182  001D' 2800'              	banksel	__lastA
  3183  001E' 1303' 1283'        	movf	(__lastA)&07fh,w
  3184  0020' 0800'              	xorwf	(isr@portA),w
  3185  0021' 0605'              u13_25:
  3186  0022'                    
  3187                           	skipnz
  3188  0022' 1903               	goto	u13_21
  3189  0023' 2800'              	goto	u13_20
  3190  0024' 2800'              u13_21:
  3191  0025'                    	goto	i1l904
  3192  0025' 2800'              u13_20:
  3193  0026'                    	line	135
  3194                           	
  3195                           i1l896:	
  3196  0026'                    ;main.c: 135:             if (_lastA == _lastB) {
  3197                           	banksel	__lastB
  3198  0026' 1303' 1283'        	movf	(__lastB+1)&07fh,w
  3199  0028' 0800'              	banksel	__lastA
  3200  0029' 1303' 1283'        	xorwf	(__lastA+1)&07fh,w
  3201  002B' 0600'              	skipz
  3202  002C' 1D03               	goto	u14_25
  3203  002D' 2800'              	banksel	__lastB
  3204  002E' 1303' 1283'        	movf	(__lastB)&07fh,w
  3205  0030' 0800'              	banksel	__lastA
  3206  0031' 1303' 1283'        	xorwf	(__lastA)&07fh,w
  3207  0033' 0600'              u14_25:
  3208  0034'                    
  3209                           	skipz
  3210  0034' 1D03               	goto	u14_21
  3211  0035' 2800'              	goto	u14_20
  3212  0036' 2800'              u14_21:
  3213  0037'                    	goto	i1l904
  3214  0037' 2800'              u14_20:
  3215  0038'                    	line	136
  3216                           	
  3217                           i1l898:	
  3218  0038'                    ;main.c: 136:                 if (_selectedInput < 3) {
  3219                           	movlw	0
  3220  0038' 3000               	banksel	__selectedInput
  3221  0039' 1303' 1283'        	subwf	(__selectedInput+1)&07fh,w
  3222  003B' 0200'              	movlw	03h
  3223  003C' 3003               	skipnz
  3224  003D' 1903               	subwf	(__selectedInput)&07fh,w
  3225  003E' 0200'              	skipnc
  3226  003F' 1803               	goto	u15_21
  3227  0040' 2800'              	goto	u15_20
  3228  0041' 2800'              u15_21:
  3229  0042'                    	goto	i1l902
  3230  0042' 2800'              u15_20:
  3231  0043'                    	line	137
  3232                           	
  3233                           i1l900:	
  3234  0043'                    ;main.c: 137:                     _selectedInput++;
  3235                           	movlw	01h
  3236  0043' 3001               	addwf	(__selectedInput)&07fh,f
  3237  0044' 0780'              	skipnc
  3238  0045' 1803               	incf	(__selectedInput+1)&07fh,f
  3239  0046' 0A80'              	movlw	0
  3240  0047' 3000               	addwf	(__selectedInput+1)&07fh,f
  3241  0048' 0780'              	line	138
  3242                           ;main.c: 138:                 } else {
  3243                           	goto	i1l904
  3244  0049' 2800'              	
  3245                           i1l52:	
  3246  004A'                    	line	139
  3247                           	
  3248                           i1l902:	
  3249  004A'                    ;main.c: 139:                     _selectedInput = 0;
  3250                           	clrf	(__selectedInput)&07fh
  3251  004A' 0180'              	clrf	(__selectedInput+1)&07fh
  3252  004B' 0180'              	goto	i1l904
  3253  004C' 2800'              	line	140
  3254                           ;main.c: 140:                 }
  3255                           	
  3256                           i1l53:	
  3257  004D'                    	goto	i1l904
  3258  004D' 2800'              	line	141
  3259                           ;main.c: 141:             }
  3260                           	
  3261                           i1l51:	
  3262  004E'                    	goto	i1l904
  3263  004E' 2800'              	line	142
  3264                           ;main.c: 142:         }
  3265                           	
  3266                           i1l50:	
  3267  004F'                    	line	144
  3268                           	
  3269                           i1l904:	
  3270  004F'                    ;main.c: 144:         if (_lastB != portB) {
  3271                           	banksel	__lastB
  3272  004F' 1303' 1283'        	movf	(__lastB+1)&07fh,w
  3273  0051' 0800'              	xorwf	(isr@portB+1),w
  3274  0052' 0608'              	skipz
  3275  0053' 1D03               	goto	u16_25
  3276  0054' 2800'              	banksel	__lastB
  3277  0055' 1303' 1283'        	movf	(__lastB)&07fh,w
  3278  0057' 0800'              	xorwf	(isr@portB),w
  3279  0058' 0607'              u16_25:
  3280  0059'                    
  3281                           	skipnz
  3282  0059' 1903               	goto	u16_21
  3283  005A' 2800'              	goto	u16_20
  3284  005B' 2800'              u16_21:
  3285  005C'                    	goto	i1l912
  3286  005C' 2800'              u16_20:
  3287  005D'                    	line	145
  3288                           	
  3289                           i1l906:	
  3290  005D'                    ;main.c: 145:             if (_lastA == _lastB) {
  3291                           	banksel	__lastB
  3292  005D' 1303' 1283'        	movf	(__lastB+1)&07fh,w
  3293  005F' 0800'              	banksel	__lastA
  3294  0060' 1303' 1283'        	xorwf	(__lastA+1)&07fh,w
  3295  0062' 0600'              	skipz
  3296  0063' 1D03               	goto	u17_25
  3297  0064' 2800'              	banksel	__lastB
  3298  0065' 1303' 1283'        	movf	(__lastB)&07fh,w
  3299  0067' 0800'              	banksel	__lastA
  3300  0068' 1303' 1283'        	xorwf	(__lastA)&07fh,w
  3301  006A' 0600'              u17_25:
  3302  006B'                    
  3303                           	skipz
  3304  006B' 1D03               	goto	u17_21
  3305  006C' 2800'              	goto	u17_20
  3306  006D' 2800'              u17_21:
  3307  006E'                    	goto	i1l912
  3308  006E' 2800'              u17_20:
  3309  006F'                    	line	146
  3310                           	
  3311                           i1l908:	
  3312  006F'                    ;main.c: 146:                 if (_selectedInput > 0) {
  3313                           	banksel	__selectedInput
  3314  006F' 1303' 1283'        	movf	((__selectedInput)&07fh),w
  3315  0071' 0800'              iorwf	((__selectedInput+1)&07fh),w
  3316  0072' 0400'              	btfsc	status,2
  3317  0073' 1903               	goto	u18_21
  3318  0074' 2800'              	goto	u18_20
  3319  0075' 2800'              u18_21:
  3320  0076'                    	goto	i1l56
  3321  0076' 2800'              u18_20:
  3322  0077'                    	line	147
  3323                           	
  3324                           i1l910:	
  3325  0077'                    ;main.c: 147:                     _selectedInput--;
  3326                           	movlw	01h
  3327  0077' 3001               	subwf	(__selectedInput)&07fh,f
  3328  0078' 0280'              	movlw	0
  3329  0079' 3000               	skipc
  3330  007A' 1C03               	decf	(__selectedInput+1)&07fh,f
  3331  007B' 0380'              	subwf	(__selectedInput+1)&07fh,f
  3332  007C' 0280'              	line	148
  3333                           ;main.c: 148:                 } else {
  3334                           	goto	i1l912
  3335  007D' 2800'              	
  3336                           i1l56:	
  3337  007E'                    	line	149
  3338                           ;main.c: 149:                     _selectedInput = 3;
  3339                           	movlw	0
  3340  007E' 3000               	movwf	(__selectedInput+1)&07fh
  3341  007F' 0080'              	movlw	03h
  3342  0080' 3003               	movwf	(__selectedInput)&07fh
  3343  0081' 0080'              	goto	i1l912
  3344  0082' 2800'              	line	150
  3345                           ;main.c: 150:                 }
  3346                           	
  3347                           i1l57:	
  3348  0083'                    	goto	i1l912
  3349  0083' 2800'              	line	151
  3350                           ;main.c: 151:             }
  3351                           	
  3352                           i1l55:	
  3353  0084'                    	goto	i1l912
  3354  0084' 2800'              	line	152
  3355                           ;main.c: 152:         }
  3356                           	
  3357                           i1l54:	
  3358  0085'                    	line	154
  3359                           	
  3360                           i1l912:	
  3361  0085'                    ;main.c: 154:         _lastA = portA;
  3362                           	movf	(isr@portA+1),w
  3363  0085' 0806'              	banksel	__lastA
  3364  0086' 1303' 1283'        	movwf	(__lastA+1)&07fh
  3365  0088' 0080'              	movf	(isr@portA),w
  3366  0089' 0805'              	banksel	__lastA
  3367  008A' 1303' 1283'        	movwf	(__lastA)&07fh
  3368  008C' 0080'              	line	155
  3369                           ;main.c: 155:         _lastB = portB;
  3370                           	movf	(isr@portB+1),w
  3371  008D' 0808'              	banksel	__lastB
  3372  008E' 1303' 1283'        	movwf	(__lastB+1)&07fh
  3373  0090' 0080'              	movf	(isr@portB),w
  3374  0091' 0807'              	banksel	__lastB
  3375  0092' 1303' 1283'        	movwf	(__lastB)&07fh
  3376  0094' 0080'              	line	156
  3377                           	
  3378                           i1l914:	
  3379  0095'                    ;main.c: 156:         _inputUpdateRequired = 1;
  3380                           	banksel	__inputUpdateRequired
  3381  0095' 1303' 1283'        	clrf	(__inputUpdateRequired)&07fh
  3382  0097' 0180'              	incf	(__inputUpdateRequired)&07fh,f
  3383  0098' 0A80'              	line	157
  3384                           	
  3385                           i1l916:	
  3386  0099'                    ;main.c: 157:         INTCONbits.RBIF = 0;
  3387                           	bcf	(11),0	;volatile
  3388  0099' 100B               	goto	i1l58
  3389  009A' 2800'              	line	158
  3390                           ;main.c: 158:     }
  3391                           	
  3392                           i1l49:	
  3393  009B'                    	line	159
  3394                           	
  3395                           i1l58:	
  3396  009B'                    	movf	(??_isr+4),w
  3397  009B' 0804'              	movwf	pclath
  3398  009C' 008A               	swapf	(??_isr+3)^0FFFFFF80h,w
  3399  009D' 0E00'              	movwf	status
  3400  009E' 0083               	swapf	saved_w,f
  3401  009F' 0EFE               	swapf	saved_w,w
  3402  00A0' 0E7E               	retfie
  3403  00A1' 0009               	opt stack 0
  3404                           GLOBAL	__end_of_isr
  3405                           	__end_of_isr:
  3406  00A2'                    	signat	_isr,89
  3407                           global	___latbits
  3408                           ___latbits	equ	2
  3409  0002                     	global	btemp
  3410                           	btemp set 07Eh
  3411  007E                     
  3412                           	DABS	1,126,2	;btemp
  3413                           	global	wtemp0
  3414                           	wtemp0 set btemp+0
  3415  007E                     	end


Data Sizes:
    Strings     0
    Constant    370
    Data        0
    BSS         11
    Persistent  0
    Stack       0

Auto Spaces:
    Space          Size  Autos    Used
    COMMON           14      9      13
    BANK0            80     19      19
    BANK1            80      0       0
    BANK3            96      0       0
    BANK2            96      0       0

Pointer List with Targets:

    None.

Critical Paths under _main in COMMON

    None.

Critical Paths under _isr in COMMON

    None.

Critical Paths under _main in BANK0

    _main->_write_volume
    _write_volume->_white_space
    _white_space->_spiWrite

Critical Paths under _isr in BANK0

    None.

Critical Paths under _main in BANK1

    None.

Critical Paths under _isr in BANK1

    None.

Critical Paths under _main in BANK3

    None.

Critical Paths under _isr in BANK3

    None.

Critical Paths under _main in BANK2

    None.

Critical Paths under _isr in BANK2

    None.

Call Graph Tables:

 ---------------------------------------------------------------------------------
 (Depth) Function   	        Calls       Base Space   Used Autos Params    Refs
 ---------------------------------------------------------------------------------
 (0) _main                                                 4     4      0     368
                                             15 BANK0      4     4      0
              _activateSelectedRelay
                             _config
                           _spiWrite
                       _write_volume
 ---------------------------------------------------------------------------------
 (1) _write_volume                                         7     7      0     338
                                              8 BANK0      7     7      0
                           _spiWrite
                        _white_space
 ---------------------------------------------------------------------------------
 (2) _white_space                                          7     7      0     136
                                              1 BANK0      7     7      0
                           _spiWrite
 ---------------------------------------------------------------------------------
 (3) _spiWrite                                             1     1      0      22
                                              0 BANK0      1     1      0
 ---------------------------------------------------------------------------------
 (1) _config                                              12    12      0       6
                                              0 BANK0     12    12      0
 ---------------------------------------------------------------------------------
 (1) _activateSelectedRelay                                0     0      0       0
 ---------------------------------------------------------------------------------
 Estimated maximum stack depth 3
 ---------------------------------------------------------------------------------
 (Depth) Function   	        Calls       Base Space   Used Autos Params    Refs
 ---------------------------------------------------------------------------------
 (4) _isr                                                  9     9      0      60
                                              0 COMMON     9     9      0
 ---------------------------------------------------------------------------------
 Estimated maximum stack depth 4
 ---------------------------------------------------------------------------------

 Call Graph Graphs:

 _main (ROOT)
   _activateSelectedRelay
   _config
   _spiWrite
   _write_volume
     _spiWrite
     _white_space
       _spiWrite

 _isr (ROOT)

 Address spaces:
Name               Size   Autos  Total    Cost      Usage
BITCOMMON            E      0       0       0        0.0%
EEDATA             100      0       0       0        0.0%
NULL                 0      0       0       0        0.0%
CODE                 0      0       0       0        0.0%
COMMON               E      9       D       1       92.9%
BITSFR0              0      0       0       1        0.0%
SFR0                 0      0       0       1        0.0%
BITSFR1              0      0       0       2        0.0%
SFR1                 0      0       0       2        0.0%
STACK                0      0       0       2        0.0%
ABS                  0      0      20       3        0.0%
BITBANK0            50      0       0       4        0.0%
BITSFR3              0      0       0       4        0.0%
SFR3                 0      0       0       4        0.0%
BANK0               50     13      13       5       23.8%
BITSFR2              0      0       0       5        0.0%
SFR2                 0      0       0       5        0.0%
BITBANK1            50      0       0       6        0.0%
BANK1               50      0       0       7        0.0%
BITBANK3            60      0       0       8        0.0%
BANK3               60      0       0       9        0.0%
BITBANK2            60      0       0      10        0.0%
BANK2               60      0       0      11        0.0%
DATA                 0      0      20      12        0.0%


Microchip Technology PIC Macro Assembler V2.00 build -1524193055 
Symbol Table                                                                                   Mon Dec 24 22:01:04 2018

                             pc 0002                     __CFG_CP$OFF 0000                     _SSPSTATbits 0094  
                            l41 0036                              l42 0056                              l43 0057  
                            l44 0057                              l71 0052                              l72 0006  
                            l80 0022                              l73 0019                              l81 0053  
                            l90 000D                              l74 004A                              l82 0063  
                            l91 000D                              l75 0060                              l83 0076  
                            l76 0060                              l84 00A6                              l85 00A9  
                            l79 0054                              l88 0006                              l89 0006  
                            fsr 0004                     _white_space 0000                    spiWrite@data 0000  
                           l100 0009                             l101 0040                             l102 0028  
                           l103 000E                             l104 003D                             l105 0013  
                           l106 0018                             l107 001D                             l108 0022  
                           l135 004D                             l940 0003                             l950 0034  
                           l942 0006                             l960 000C                             l952 003C  
                           l944 000A                             l970 0017                             l962 000D  
                           l938 0003                             l946 0018                             l954 004A  
                           l980 0022                             l972 0018                             l964 000E  
                           l956 0000                             l948 0019                             l990 002F  
                           l982 0025                             l974 001B                             l966 000F  
                           l958 0006                    config@_lastA 0005                             l992 0030  
                           l984 0028                             l976 001C                             l968 0014  
                  config@_lastB 0007                             l994 0033                             l986 002B  
                           l978 001F                             l996 0034                             l988 002C  
                           l998 0035                             u200 0017                             u201 0016  
                           u210 0049                             u211 0048                             u220 005F  
                           u221 005E                             u205 0013                             u230 0007  
                           u231 0006                             u215 0045                             u240 0009  
                           u225 005B                             u241 0008                             u250 0020  
                           u251 001F                             u307 0049                             u260 0052  
                           u261 0051                             u190 000C                             u270 005C  
                           u191 000B                             u271 005B                             u255 001C  
                           u280 0074                             u281 0073                             u265 004E  
                           u290 00A6                    __CFG_CPD$OFF 0000                             u291 00A5  
                           u285 0070                             u295 00A2                             _isr 0000  
                           fsr0 0004                             indf 0000                    __CFG_LVP$OFF 0000  
                          l1000 0039                            l1010 0009                            l1002 003B  
                          l1020 0022                            l1012 000E                            l1004 0043  
                          l1100 002E                            l1022 0027                            l1014 0013  
                          l1006 0000                            l1110 0037                            l1102 0031  
                          l1016 0018                            l1024 0028                            l1008 0008  
                          l1040 0021                            l1032 0003                            l1112 0038  
                          l1104 0032                            l1018 001D                            l1026 003D  
                          l1050 005C                            l1042 0022                            l1034 0009  
                          l1114 003E                            l1106 0033                            l1140 002F  
                          l1060 0091                            l1052 0063                            l1044 003D  
                          l1036 000F                            l1116 0041                            l1108 0036  
                          l1062 0099                            l1054 0067                            l1046 0045  
                          l1038 0013                            l1118 004F                            l1070 000E  
                          l1056 0075                            l1048 0054                            l1080 0018  
                          l1072 0012                            l1064 0000                            l1058 0076  
                          l1090 001D                            l1082 0019                            l1074 0013  
                          l1066 0005                            l1092 0023                            l1084 001A  
                          l1076 0014                            l1068 000A                            l1094 0026  
                          l1086 001B                            l1078 0017                            l1096 0027  
                          l1088 001C                            l1098 0028                            ?_isr 0000  
                          i1l50 004F                            i1l51 004E                            i1l52 004A  
                          i1l53 004D                            i1l54 0085                            i1l55 0084  
                          i1l56 007E                            i1l49 009B                            i1l57 0083  
                          i1l58 009B                    __CFG_WRT$OFF 0000                            _main 0000  
                          _font 0012                   config@display 000B                            btemp 007E  
                 __CFG_BOREN$ON 0000                            start 0000*                  __CFG_IESO$OFF 0000  
                         ??_isr 0000                           ?_main 0000                   __CFG_WDTE$OFF 0000  
                         i1l900 0043                           i1l910 0077                           i1l902 004A  
                         i1l912 0085                           i1l904 004F                           i1l914 0095  
                         i1l906 005D                           i1l916 0099                           i1l908 006F  
                         i1l890 0000                           i1l892 0004                           i1l894 0018  
                         i1l896 0026                           i1l898 0038                   write_volume@x 000B  
                         u12_20 0004                           u12_21 0003                           u13_20 0026  
                         u13_21 0025                           u13_25 0022                           u14_20 0038  
                         u14_21 0037                           u14_25 0034                           u15_20 0043  
                         u15_21 0042                           u16_20 005D                           u16_21 005C  
                         u16_25 0059                           u17_20 006F                           u17_21 006E  
                         u17_25 006B                           u18_20 0077                           u18_21 0076  
                         _PORTA 0005                           _PORTC 0007                           _TRISC 0087  
                         _TRISD 0088           _activateSelectedRelay 0000                  __CFG_FCMEN$OFF 0000  
                         _portA 0002                           _portB 0000                           pclath 000A  
                         status 0003                           wtemp0 007E                  __CFG_MCLRE$OFF 0000  
               __initialization 0000                    __end_of_main 005A                    __end_of_font 0184  
                        ??_main 000F           __size_of_write_volume 00AA                white_space@kolom 0004  
                        _OSCCON 008F                          _SSPCON 0014                          _SSPBUF 0013  
                __CFG_PWRTE$OFF 0000                    _write_volume 0000                          __lastA 0000* 
                        __lastB 0000*                         _config 0000          ?_activateSelectedRelay 0000  
                        saved_w 007E                __end_of_spiWrite 000E         __end_of__initialization 0004  
                __pcstackCOMMON 0000            config@_selectedInput 0003                    ?_white_space 0000  
                    __pmaintext 0000                      __pintentry 0000                         ?_config 0000  
                __selectedInput 0000*                        _SSPSTAT 0094                      __stringtab 0000  
                     ?_spiWrite 0000                 __size_of_config 004E                       _ANSELbits 0188  
                       __ptext1 0000                         __ptext2 0000                         __ptext3 0000  
                       __ptext4 0000                         __ptext5 0000                         __ptext6 0000  
                  __size_of_isr 00A2        white_space@aantal_spaces 0003            end_of_initialization 0004  
             write_volume@x_280 000D                      ??_spiWrite 0000                    __pstringtext 0000  
       ??_activateSelectedRelay 0000                       _PORTBbits 0006                       _PORTCbits 0007  
          __inputUpdateRequired 0000*           __size_of_white_space 0061                       _TRISAbits 0085  
                     _TRISBbits 0086                       _TRISCbits 0087                       _TRISEbits 0089  
                    config@data 000A                      main@volume 0012                  __end_of_config 004E  
           start_initialization 0000                     __end_of_isr 00A2                        ??_config 0000  
                   __pbssCOMMON 0000                       ___latbits 0002                   __pcstackBANK0 0000  
        __CFG_FOSC$INTRC_CLKOUT 0000               __size_of_spiWrite 000E               interrupt_function 0000  
                      _IOCBbits 0096                   ?_write_volume 0000  __size_of_activateSelectedRelay 0041  
                   __stringbase 0012   __end_of_activateSelectedRelay 0041                  white_space@rij 0006  
                ??_write_volume 0008                   ??_white_space 0001              __end_of__stringtab 0012  
                    _ANSELHbits 0189               __CFG_BOR4V$BOR21V 0000                   __size_of_main 005A  
                      _spiWrite 0000      config@_inputUpdateRequired 0009                      _INTCONbits 000B  
           __end_of_white_space 0061                        isr@portA 0005                        isr@portB 0007  
                      intlevel1 0000*             write_volume@volume 000A                       stringcode 000A  
                      stringtab 0000            __end_of_write_volume 00AA  
